
./depend_Release_CSR101x_A05/baseband.elf:     file format elf32-xap2

Disassembly of section .text:

0x00000010 <PROG_PATCH_ADDRESS>:
      10:	02AE      	ror        @(+0x2, x)
      11:	7F75      	nadd       al, @0x7F <__size_of_ble_sm_simple_pairing_completed+0x6>
      12:	2000      	**prefx    0x20
      13:	17DE      	xor        y, @(+0x2017, x)
      14:	DC20      	bgt        -0x24 <___libgatt_lib_db_1306+0x7FFFF0:0xFFFFF0[p]>
      15:	201E      	ld         y, @(+0x20, x)
      16:	19C6      	and        al, @(+0x19, x)
      17:	C720      	bgt        -0x39 <___libgatt_lib_db_1306+0x7FFFDE:0xFFFFDE[p]>
      18:	2014      	ld         al, #+0x20
      19:	55C1      	and        ah, @0x55 <___libgatt_lib_db_2574>
      1A:	C420      	bgt        -0x3C <___libgatt_lib_db_1306+0x7FFFDE:0xFFFFDE[p]>
      1B:	200A      	st         xh, @(+0x20, y)
      1C:	09C0      	and        ah, #0x9
      1D:	C220      	bgt        -0x3E <___libgatt_lib_db_1306+0x7FFFDF:0xFFFFDF[p]>
      1E:	804E      	addc       y, @(-0x80, x)
      1F:	21E6      	blt        +0x21, x
      20:	21C3      	and        ah, @(+0x21, y)
      21:	2196      	sdiv       @(+0x21, x)
      22:	416F      	subc       y, @(+0x41, y)
      23:	4111      	ld         ah, @0x41 <___libgatt_lib_db_224>
      24:	9057      	sub        al, @(-0x70, y)
      25:	3801      	st         flags, @(+0x38, y)
      26:	B4E0      	bra        -0x4C <___libgatt_lib_db_1306+0x7FFFDA:0xFFFFDA[p]>
      27:	02C2      	and        ah, @(+0x2, x)
      28:	0D80      	cmp        ah, #+0xD
      29:	C3B4      	or         al, #-0x3D
      2A:	8002      	st         ux, @(-0x80, y)
      2B:	B408      	**Unknown**
      2C:	02C4      	and        al, #0x2
      2D:	0380      	cmp        ah, #+0x3
      2E:	C6B4      	or         al, #-0x3A
      2F:	9022      	st         ah, @(-0x70, x)
      30:	E800      	**prefx    0xE8
      31:	70E0      	bra        -0x1790 <___libgatt_lib_db_1306+0x7FE8A1:0xFFE8A1[p]>
      32:	901C      	ld         y, #-0x70
      33:	E900      	**prefx    0xE9
      34:	70E0      	bra        -0x1690 <___libgatt_lib_db_1306+0x7FE9A4:0xFFE9A4[p]>
      35:	9016      	ld         al, @(-0x70, x)
      36:	6000      	**prefx    0x60
      37:	60E0      	bra        +0x6060 <___libgatt_lib_db_3843+0x81D:0x6097[p]>
      38:	2402      	st         ux, @(+0x24, y)
      39:	F802      	st         ux, @(-0x8, y)
      3A:	0290      	smult      #+0x2
      3B:	E058      	sub        x, #-0x20
      3C:	9028      	ble        -0x70 <___libgatt_lib_db_1306+0x7FFFCC:0xFFFFCC[p]>
      3D:	1802      	st         ux, @(+0x18, y)
      3E:	90F0      	bne        -0x70 <___libgatt_lib_db_1306+0x7FFFCE:0xFFFFCE[p]>
      3F:	1F02      	st         ux, @(+0x1F, y)
      40:	75F0      	bne        +0x75 <___libgatt_lib_db_4094:0xB5[p]>
      41:	10E8      	bpl        +0x10 <___libgatt_lib_db_2885:0x51[p]>
      42:	E875      	nadd       al, @0xFFE8 <(scratchpad)>
      43:	8000      	**prefx    0x80
      44:	809C      	bsr        -0x8080 <___libgatt_lib_db_1306+0x7F7FC4:0xFF7FC4[p]>
      45:	904E      	addc       y, @(-0x70, x)
      46:	E800      	**prefx    0xE8
      47:	B4E0      	bra        -0x184C <___libgatt_lib_db_1306+0x7FE7FB:0xFFE7FB[p]>
      48:	1706      	ld         ux, @(+0x17, y)
      49:	0290      	smult      #+0x2
      4A:	EA00      	**prefx    0xEA
      4B:	A3F0      	bne        -0x165D <___libgatt_lib_db_1306+0x7FE9EE:0xFFE9EE[p]>
      4C:	F0EB      	bpl        @(-0x10, y)
      4D:	E0A3      	asl        @(-0x20, y)
      4E:	A3F0      	bne        -0x5D <___libgatt_lib_db_1306+0x7FFFF1:0xFFFFF1[p]>
      4F:	F0E0      	bra        -0x10 <___libgatt_lib_db_2824:0x3F[p]>
      50:	E0A3      	asl        @(-0x20, y)
      51:	90F0      	bne        -0x70 <___libgatt_lib_db_1306+0x7FFFE1:0xFFFFE1[p]>
      52:	0702      	st         ux, @(+0x7, y)
      53:	80F0      	bne        -0x80 <___libgatt_lib_db_1306+0x7FFFD3:0xFFFFD3[p]>
      54:	9028      	ble        -0x70 <___libgatt_lib_db_1306+0x7FFFE4:0xFFFFE4[p]>
      55:	0002      	st         ux, @(0x0, y)
      56:	F8E0      	bra        -0x8 <UART_RATE_19K2:0x4E[p]>
      57:	9AC3      	and        ah, @(-0x66, y)
      58:	0670      	nadd       ah, #+0x6
      59:	E0A3      	asl        @(-0x20, y)
      5A:	9BF9      	bcc        @0xFF9B <___libgatt_lib_db_2743+0x11A>
      5B:	1960      	subc       ah, #+0x19
      5C:	0190      	smult      #+0x1
      5D:	E0D8      	xor        x, #0xFFE0
      5E:	9AC3      	and        ah, @(-0x66, y)
      5F:	A3FC      	bcs        -0x5D <___libgatt_lib_db_1076:0x2[p]>
      60:	9BE0      	bra        -0x65 <___libgatt_lib_db_1306+0x7FFFFB:0xFFFFFB[p]>
      61:	ECFD      	bcs        @0xFFEC <(scratchpad)>
      62:	9028      	ble        -0x70 <___libgatt_lib_db_1306+0x7FFFF2:0xFFFFF2[p]>
      63:	D801      	st         flags, @(-0x28, y)
      64:	EDF0      	bne        -0x13 <___libgatt_lib_db_2885:0x51[p]>
      65:	A339      	add        x, @0xFFA3 <___libgatt_lib_db_2743+0x122>
      66:	90F0      	bne        -0x70 <___libgatt_lib_db_1306+0x7FFFF6:0xFFFFF6[p]>
      67:	DF01      	st         flags, @(-0x21, y)
      68:	75F0      	bne        +0x75 <___libgatt_lib_db_460+0x1:0xDD[p]>
      69:	04C8      	and        x, #0x4
      6A:	C875      	nadd       al, @0xFFC8 <___libgatt_lib_db_2743+0x147>
      6B:	0100      	**prefx    0x1
      6C:	9003      	st         uy, @(+0x90, y)
      6D:	F001      	st         flags, @(-0x10, y)
      6E:	30E0      	bra        +0x30 <UART_RATE_38K4:0x9E[p]>
      6F:	25E0      	bra        +0x25 <___libgatt_lib_db_203:0x94[p]>
      70:	0190      	smult      #+0x1
      71:	E0D8      	xor        x, #0xFFE0
      72:	90F9      	bcc        @0xFF90 <___libgatt_lib_db_2743+0x10F>
      73:	7001      	st         flags, @(+0x70, y)
      74:	C3E0      	bra        -0x3D <___libgatt_lib_db_129:0x37[p]>
      75:	7099      	tst        @0x70 <___libgatt_lib_db_4057>
      76:	9018      	ld         x, #-0x70
      77:	D901      	st         flags, @(-0x27, y)
      78:	F9E0      	bra        -0x7 <___libgatt_lib_db_3993:0x71[p]>
      79:	0190      	smult      #+0x1
      7A:	E071      	nadd       ah, @0xFFE0 <register ah>
      7B:	99C3      	and        ah, @(-0x67, y)
      7C:	0B70      	nadd       ah, #+0xB
      7D:	0290      	smult      #+0x2
      7E:	E0F8      	bcc        -0x20 <___libgatt_lib_db_2586:0x5E[p]>
      7F:	0154      	sub        al, #+0x1
      80:	90F0      	bne        -0x70 <PROG_APPCODE_START:0x10[p]>
      81:	FF02      	st         ux, @(-0x1, y)
      82:	90F0      	bne        -0x70 <___libgatt_lib_db_2070:0x12[p]>
      83:	E800      	**prefx    0xE8
      84:	F8E0      	bra        -0x1808 <___libgatt_lib_db_1306+0x7FE87C:0xFFE87C[p]>
      85:	0290      	smult      #+0x2
      86:	E000      	**prefx    0xE0
      87:	B8FA      	bcc        -0x2048, x
      88:	0306      	ld         ux, @(+0x3, y)
      89:	0274      	nadd       al, #+0x2
      8A:	A3F0      	bne        -0x5D <___libgatt_lib_db_2509:0x2D[p]>
      8B:	FBE0      	bra        -0x5 <___libgatt_lib_db_4491:0x86[p]>
      8C:	06B8      	or         x, #+0x6
      8D:	7410      	ld         ah, #+0x74
      8E:	F000      	**prefx    0xF0
      8F:	E0A3      	asl        @(-0x1020, y)
      90:	A3F0      	bne        -0x5D <___libgatt_lib_db_2530:0x33[p]>
      91:	F0E0      	bra        -0x10 <___libgatt_lib_db_108:0x81[p]>
      92:	E0A3      	asl        @(-0x20, y)
      93:	90F0      	bne        -0x70 <___libgatt_lib_db_102:0x23[p]>
      94:	0702      	st         ux, @(+0x7, y)
      95:	90F0      	bne        -0x70 <___libgatt_lib_db_179:0x25[p]>
      96:	F001      	st         flags, @(-0x10, y)
      97:	30E0      	bra        +0x30 <___libgatt_lib_db_2924+0x1:0xC7[p]>
      98:	57E1      	bra        @0x57 <___libgatt_lib_db_2589>
      99:	D3D2      	xor        ah, @(-0x2D, x)
      9A:	A3F0      	bne        -0x5D <BSS_APP_SIZE:0x3D[p]>
      9B:	F0E0      	bra        -0x10 <__size_of_ble_gatt_connect_completed:0x8B[p]>
      9C:	E0A3      	asl        @(-0x20, y)
      9D:	0B54      	sub        al, #+0xB
      9E:	90F0      	bne        -0x70 <___libgatt_lib_db_2521:0x2E[p]>
      9F:	F701      	st         flags, @(-0x9, y)
      A0:	90F0      	bne        -0x70 <___libgatt_lib_db_130:0x30[p]>
      A1:	C002      	st         ux, @(-0x40, y)
      A2:	F8E0      	bra        -0x8 <___libgatt_lib_db_4378:0x9A[p]>
      A3:	E0A3      	asl        @(-0x20, y)
      A4:	A3F9      	bcc        @0xFFA3 <___libgatt_lib_db_2743+0x122>
      A5:	30E0      	bra        +0x30 <___libgatt_lib_db_239+0x2:0xD5[p]>
      A6:	07E6      	blt        +0x7, x
      A7:	E7D2      	xor        ah, @(-0x19, x)
      A8:	7BFA      	bcc        +0x7B, x
      A9:	80FF      	bcs        @(-0x80, y)
      AA:	C205      	ld         flags, @(-0x3E, y)
      AB:	FAE7      	blt        @(-0x6, y)
      AC:	007B      	nadd       x, @(0x0, y)
      AD:	0290      	smult      #+0x2
      AE:	E4C0      	and        ah, #0xFFE4
      AF:	A3F0      	bne        -0x5D <___libgatt_lib_db_122:0x52[p]>
      B0:	A3F0      	bne        -0x5D <___libgatt_lib_db_2573:0x53[p]>
      B1:	A3F0      	bne        -0x5D <___libgatt_lib_db_10:0x54[p]>
      B2:	A3F0      	bne        -0x5D <___libgatt_lib_db_2574:0x55[p]>
      B3:	A3F0      	bne        -0x5D <___libgatt_lib_db_2532:0x56[p]>
      B4:	F0A3      	asl        @(-0x10, y)
      B5:	90C3      	and        ah, @(-0x70, y)
      B6:	C001      	st         flags, @(-0x40, y)
      B7:	98E0      	bra        -0x68 <___libgatt_lib_db_20:0x4F[p]>
      B8:	A3F0      	bne        -0x5D <___libgatt_lib_db_2563:0x5B[p]>
      B9:	99E0      	bra        -0x67 <___libgatt_lib_db_122:0x52[p]>
      BA:	A3F0      	bne        -0x5D <___libgatt_lib_db_121:0x5D[p]>
      BB:	9AE0      	bra        -0x66 <___libgatt_lib_db_2574:0x55[p]>
      BC:	A3F0      	bne        -0x5D <___libgatt_lib_db_2528:0x5F[p]>
      BD:	9BE0      	bra        -0x65 <CSTORE_SIZE:0x58[p]>
      BE:	A3F0      	bne        -0x5D <___libgatt_lib_db_2556:0x61[p]>
      BF:	9BE0      	bra        -0x65 <___libgatt_lib_db_2564:0x5A[p]>
      C0:	A3F0      	bne        -0x5D <___libgatt_lib_db_249:0x63[p]>
      C1:	9BE0      	bra        -0x65 <___libgatt_lib_db_2547:0x5C[p]>
      C2:	A3F0      	bne        -0x5D <___libgatt_lib_db_2508:0x65[p]>
      C3:	C2F0      	bne        -0x3E <___libgatt_lib_db_4509:0x85[p]>
      C4:	75D3      	xor        ah, @(+0x75, y)
      C5:	02C8      	and        x, #0x2
      C6:	C875      	nadd       al, @0xFFC8 <___libgatt_lib_db_2743+0x147>
      C7:	0100      	**prefx    0x1
      C8:	9003      	st         uy, @(+0x90, y)
      C9:	F001      	st         flags, @(-0x10, y)
      CA:	30E0      	bra        +0x30 <.LEFDE16+0x2:0xFA[p]>
      CB:	18E5      	blt        @0x18 <___libgatt_lib_db_1364>
      CC:	0190      	smult      #+0x1
      CD:	E0A0      	asl        #0xFFE0
      CE:	A3F0      	bne        -0x5D <___libgatt_lib_db_3993:0x71[p]>
      CF:	F0E0      	bra        -0x10 <___libgatt_lib_db_136+0x1:0xBF[p]>
      D0:	E0A3      	asl        @(-0x20, y)
      D1:	A3F0      	bne        -0x5D <__size_of_ble_lm_connection_closed:0x74[p]>
      D2:	F0E0      	bra        -0x10 <___libgatt_lib_db_2929:0xC2[p]>
      D3:	E0A3      	asl        @(-0x20, y)
      D4:	A3F0      	bne        -0x5D <___libgatt_lib_db_3936:0x77[p]>
      D5:	F0E0      	bra        -0x10 <___libgatt_lib_db_2931:0xC5[p]>
      D6:	0290      	smult      #+0x2
      D7:	F02F      	st         y, @(-0x10, y)
      D8:	C875      	nadd       al, @0xFFC8 <___libgatt_lib_db_2743+0x147>
      D9:	7501      	st         flags, @(+0x75, y)
      DA:	00C8      	and        x, #0x0
      DB:	0301      	st         flags, @(+0x3, y)
      DC:	0190      	smult      #+0x1
      DD:	E028      	ble        -0x20 <___libgatt_lib_db_4094+0x8:0xBD[p]>
      DE:	45B4      	or         al, #+0x45
      DF:	901E      	ld         y, @(-0x70, x)
      E0:	0000      	**prefx    0x0
      E1:	F0E0      	bra        -0x10 <___libgatt_lib_db_2933+0x2:0xD1[p]>
      E2:	A3FF      	bcs        @(-0x5D, y)
      E3:	F0E0      	bra        -0x10 <___libgatt_lib_db_239:0xD3[p]>
      E4:	90FE      	bcs        -0x70, x
      E5:	8000      	**prefx    0x80
      E6:	FDE0      	bra        -0x8003 <___libgatt_lib_db_1306+0x7F80E3:0xFF80E3[p]>
      E7:	E0A3      	asl        @(-0x20, y)
      E8:	EFFC      	bcs        -0x11 <___libgatt_lib_db_239+0x4:0xD7[p]>
      E9:	9DC3      	and        ah, @(-0x63, y)
      EA:	9CEE      	bmi        -0x64, x
      EB:	E730      	add        ah, #-0x19
      EC:	9004      	**Unknown**
      ED:	8700      	**prefx    0x87
      EE:	75F0      	bne        -0x788B <___libgatt_lib_db_1306+0x7F8863:0xFF8863[p]>
      EF:	10C8      	and        x, #0x10
      F0:	C875      	nadd       al, @0xFFC8 <___libgatt_lib_db_2743+0x147>
      F1:	0100      	**prefx    0x1
      F2:	9003      	st         uy, @(+0x90, y)
      F3:	E800      	**prefx    0xE8
      F4:	30E0      	bra        -0x17D0 <___libgatt_lib_db_1306+0x7FE924:0xFFE924[p]>
      F5:	3FE2      	bra        +0x3F, x
      F6:	0190      	smult      #+0x1
      F7:	E038      	add        x, #-0x20
      F8:	CAB4      	or         al, #-0x36
      F9:	8002      	st         ux, @(-0x80, y)
      FA:	B417      	ld         al, @(-0x4C, y)
      FB:	02C9      	and        x, @0x2 <___libgatt_lib_db_1076>
      FC:	1280      	cmp        ah, #+0x12
      FD:	CBB4      	or         al, #-0x35
      FE:	8002      	st         ux, @(-0x80, y)
      FF:	B40D      	rti        @(-0x4C, y)
     100:	02CC      	and        y, #0x2
     101:	0880      	cmp        ah, #+0x8
     102:	CDB4      	or         al, #-0x33
     103:	8002      	st         ux, @(-0x80, y)
     104:	B403      	st         uy, @(-0x4C, y)
     105:	1FAF      	ror        @(+0x1F, y)
     106:	0190      	smult      #+0x1
     107:	E0F0      	bne        -0x20 <ROMDATA_SIZE+0x1:0xE7[p]>
     108:	0444      	addc       al, #+0x4
     109:	A3F0      	bne        -0x5D <___libgatt_lib_db_2991:0xAC[p]>
     10A:	F0E0      	bra        -0x10 <.LEFDE16+0x2:0xFA[p]>
     10B:	E0A3      	asl        @(-0x20, y)
     10C:	90F0      	bne        -0x70 <.LASFDE10:0x9C[p]>
     10D:	F701      	st         flags, @(-0x9, y)
     10E:	90F0      	bne        -0x70 <UART_RATE_38K4:0x9E[p]>
     10F:	E800      	**prefx    0xE8
     110:	C2E0      	bra        -0x183E <___libgatt_lib_db_1306+0x7FE8D2:0xFFE8D2[p]>
     111:	F0E6      	blt        -0x10, x
     112:	E0A3      	asl        @(-0x20, y)
     113:	90F0      	bne        -0x70 <___libgatt_lib_db_2969:0xA3[p]>
     114:	EF00      	**prefx    0xEF
     115:	75F0      	bne        -0x108B <___libgatt_lib_db_1306+0x7FF08A:0xFFF08A[p]>
     116:	40E8      	bpl        +0x40 <.LASFDE0+0x2:0x156[p]>
     117:	E875      	nadd       al, @0xFFE8 <(scratchpad)>
     118:	0100      	**prefx    0x1
     119:	E503      	st         uy, @(+0xE5, y)
     11A:	607F      	nadd       y, @(+0x60, y)
     11B:	903A      	add        x, @(-0x70, x)
     11C:	2801      	st         flags, @(+0x28, y)
     11D:	4B74      	nadd       al, #+0x4B
     11E:	90F0      	bne        -0x70 <L0:0xAE[p]>
     11F:	2F01      	st         flags, @(+0x2F, y)
     120:	75F0      	bne        +0x75 <.LVL4+0x2:0x195[p]>
     121:	007F      	nadd       y, @(0x0, y)
     122:	0290      	smult      #+0x2
     123:	E080      	cmp        ah, #-0x20
     124:	2323      	st         ah, @(+0x23, y)
     125:	90F8      	bcc        -0x70 <___libgatt_lib_db_4094:0xB5[p]>
     126:	4002      	st         ux, @(+0x40, y)
     127:	48E0      	bra        +0x48 <.LASFDE2+0x3:0x16F[p]>
     128:	0090      	smult      #+0x0
     129:	F0F0      	bne        -0x10 <.LASFDE20+0x5:0x119[p]>
     12A:	0090      	smult      #+0x0
     12B:	F0F7      	beq        @(-0x10, y)
     12C:	0290      	smult      #+0x2
     12D:	E098      	tst        #-0x20
     12E:	0190      	smult      #+0x1
     12F:	F0A8      	rol        #0xFFF0
     130:	E0A3      	asl        @(-0x20, y)
     131:	A3F0      	bne        -0x5D <___libgatt_lib_db_239+0x1:0xD4[p]>
     132:	F0E0      	bra        -0x10 <.LASFDE20+0xE:0x122[p]>
     133:	E0A3      	asl        @(-0x20, y)
     134:	A3F0      	bne        -0x5D <___libgatt_lib_db_239+0x4:0xD7[p]>
     135:	F0E0      	bra        -0x10 <.LASFDE20+0x11:0x125[p]>
     136:	E0A3      	asl        @(-0x20, y)
     137:	A3F0      	bne        -0x5D <___libgatt_lib_db_239+0x7:0xDA[p]>
     138:	75F0      	bne        +0x75 <.LASFDE8+0x1:0x1AD[p]>
     139:	80C8      	and        x, #0xFF80
     13A:	C875      	nadd       al, @0xFFC8 <___libgatt_lib_db_2743+0x147>
     13B:	0100      	**prefx    0x1
     13C:	9003      	st         uy, @(+0x90, y)
     13D:	3801      	st         flags, @(+0x38, y)
     13E:	54E0      	bra        +0x54 <.LVL3+0x4:0x192[p]>
     13F:	B4FE      	bcs        -0x4C, x
     140:	45CA      	and        x, @(+0x45, x)
     141:	0290      	smult      #+0x2
     142:	E070      	nadd       ah, #-0x20
     143:	F5F9      	bcc        @0xFFF5 <(scratchpad)>
     144:	7582      	cmp        ah, @(+0x75, x)
     145:	0883      	cmp        ah, @(+0x8, y)
     146:	F4E0      	bra        -0xC <.LASFDE22+0xE:0x13A[p]>
     147:	0354      	sub        al, #+0x3
     148:	3560      	subc       ah, #+0x35
     149:	0090      	smult      #+0x0
     14A:	E060      	subc       ah, #-0x20
     14B:	2F60      	subc       ah, #+0x2F
     14C:	0224      	bge        +0x2 <.LSCIE0+0xA:0x14E[p]>
     14D:	90F8      	bcc        -0x70 <___libgatt_lib_db_460+0x1:0xDD[p]>
     14E:	7802      	st         ux, @(+0x78, y)
     14F:	60E0      	bra        +0x60 <.LASFDE8+0x3:0x1AF[p]>
     150:	9826      	st         al, @(-0x68, x)
     151:	2370      	nadd       ah, #+0x23
     152:	4774      	nadd       al, #+0x47
     153:	90F0      	bne        -0x70 <.LEFDE14+0x3:0xE3[p]>
     154:	F101      	st         flags, @(-0xF, y)
     155:	20E0      	bra        +0x20 <.LASFDE2+0x9:0x175[p]>
     156:	19E6      	blt        +0x19, x
     157:	0190      	smult      #+0x1
     158:	F02F      	st         y, @(-0x10, y)
     159:	0090      	smult      #+0x0
     15A:	E440      	addc       ah, #-0x1C
     15B:	90F0      	bne        -0x70 <UART_RATE_57K6:0xEB[p]>
     15C:	4700      	**prefx    0x47
     15D:	89F0      	bne        +0x4689 <DATA_ROM_SIZE+0x7E6:0x47E6[p]>
     15E:	7582      	cmp        ah, @(+0x75, x)
     15F:	0883      	cmp        ah, @(+0x8, y)
     160:	54E0      	bra        +0x54 <RADIOBUFS_SIZE+0x4:0x1B4[p]>
     161:	F0EF      	bmi        @(-0x10, y)
     162:	7F75      	nadd       al, @0x7F <__size_of_ble_sm_simple_pairing_completed+0x6>
     163:	75FF      	bcs        @(+0x75, y)
     164:	40C8      	and        x, #0x40
     165:	C875      	nadd       al, @0xFFC8 <___libgatt_lib_db_2743+0x147>
     166:	0100      	**prefx    0x1
     167:	0003      	st         uy, @(+0x100, y)

0x00000168 <___libgatt_lib_db_476>:
     168:	0014      	ld         al, #+0x0
     169:	9700      	**prefx    0x97
     16A:	3625      	st         al, @0x9736 <sm_store_recall>
     16B:	0014      	ld         al, #+0x0
     16C:	9700      	**prefx    0x97
     16D:	3725      	st         al, @0x9737 <sm_keys_request>
     16E:	0200      	**prefx    0x2
     16F:	B914      	ld         al, #+0x1B9
     170:	9700      	**prefx    0x97
     171:	3825      	st         al, @0x9738 <sm_div_approve_request>
     172:	0014      	ld         al, #+0x0
     173:	3600      	**prefx    0x36
     174:	BA25      	st         al, @0x35BA <sm_pairing_auth_ind>
     175:	0014      	ld         al, #+0x0
     176:	3600      	**prefx    0x36
     177:	B925      	st         al, @0x35B9 <sm_long_term_key_ind>
     178:	00E2      	bra        0x0, x

0x00000179 <SMFeaturesReq>:
     179:	030B      	enter      #+0x3

0x0000017A <.LCFI0>:
     17A:	0027      	st         al, @(0x0, y)
     17B:	0123      	st         ah, @(+0x1, y)
     17C:	EC9C      	bsr        -0x14 <___libgatt_lib_db_476:0x168[p]>

0x0000017D <.LVL1>:
     17D:	009B      	tst        @(0x0, y)
     17E:	04F0      	bne        +0x4 <.LEFDE2+0x2:0x182[p]>
     17F:	0014      	ld         al, #+0x0
     180:	9700      	**prefx    0x97
     181:	3625      	st         al, @0x9736 <sm_store_recall>
     182:	019B      	tst        @(+0x1, y)
     183:	04F0      	bne        +0x4 <.LASFDE4+0x3:0x187[p]>
     184:	0014      	ld         al, #+0x0
     185:	9700      	**prefx    0x97
     186:	3725      	st         al, @0x9737 <sm_keys_request>
     187:	039B      	tst        @(+0x3, y)
     188:	04F0      	bne        +0x4 <.LVL2+0x3:0x18C[p]>

0x00000189 <.LVL2>:
     189:	0014      	ld         al, #+0x0
     18A:	9700      	**prefx    0x97
     18B:	3825      	st         al, @0x9738 <sm_div_approve_request>
     18C:	049B      	tst        @(+0x4, y)
     18D:	04F0      	bne        +0x4 <.LVL3+0x3:0x191[p]>

0x0000018E <.LVL3>:
     18E:	0014      	ld         al, #+0x0
     18F:	3600      	**prefx    0x36
     190:	BA25      	st         al, @0x35BA <sm_pairing_auth_ind>
     191:	059B      	tst        @(+0x5, y)
     192:	04F0      	bne        +0x4 <.LVL4+0x3:0x196[p]>

0x00000193 <.LVL4>:
     193:	0014      	ld         al, #+0x0
     194:	3600      	**prefx    0x36
     195:	B925      	st         al, @0x35B9 <sm_long_term_key_ind>
     196:	030F      	leave      #+0x3

0x00000197 <SMDistributeMasterLtk>:
     197:	E199      	tst        @0xFFE1 <register al>
     198:	06F4      	beq        +0x6 <.LVL7:0x19E[p]>
     199:	9300      	**prefx    0x93
     19A:	6015      	ld         al, @0x9360 <DATA_ROMDATA_START>

0x0000019B <.LVL6>:
     19B:	0100      	**prefx    0x1
     19C:	00B4      	or         al, #+0x100
     19D:	05E0      	bra        +0x5 <.LVL8+0x2:0x1A2[p]>

0x0000019E <.LVL7>:
     19E:	9300      	**prefx    0x93
     19F:	6015      	ld         al, @0x9360 <DATA_ROMDATA_START>

0x000001A0 <.LVL8>:
     1A0:	FF00      	**prefx    0xFF
     1A1:	FFC4      	and        al, #0xFEFF
     1A2:	9300      	**prefx    0x93
     1A3:	6025      	st         al, @0x9360 <DATA_ROMDATA_START>
     1A4:	00E2      	bra        0x0, x

0x000001A5 <SMDivApproval>:
     1A5:	020B      	enter      #+0x2
     1A6:	0023      	st         ah, @(0x0, y)
     1A7:	0100      	**prefx    0x1
     1A8:	B000      	**prefx    0xB0
     1A9:	229C      	bsr        +0xB022 <___libgatt_lib_db_363:0xB1CB[p]>

0x000001AA <.LVL1>:
     1AA:	001B      	ld         x, @(0x0, y)
     1AB:	0188      	cmp        x, #+0x1
     1AC:	09F0      	bne        +0x9 <RADIOBUFS_SIZE+0x5:0x1B5[p]>
     1AD:	1690      	smult      #+0x16
     1AE:	E119      	ld         x, @0xFFE1 <register al>
     1AF:	9500      	**prefx    0x95
     1B0:	2E16      	ld         al, @(-0x6AD2, x)
     1B1:	0100      	**prefx    0x1
     1B2:	CE00      	**prefx    0xCE
     1B3:	639C      	bsr        +0xCE63 <___libgatt_lib_db_4098:0xD016[p]>
     1B4:	04E0      	bra        +0x4 <.LEFDE8:0x1B8[p]>
     1B5:	0100      	**prefx    0x1
     1B6:	8800      	**prefx    0x88
     1B7:	CE9C      	bsr        +0x87CE <___libgatt_lib_db_468:0x8985[p]>
     1B8:	020F      	leave      #+0x2

0x000001B9 <___libgatt_lib_db_487>:
     1B9:	030B      	enter      #+0x3

0x000001BA <.LCFI1>:
     1BA:	0027      	st         al, @(0x0, y)
     1BB:	0123      	st         ah, @(+0x1, y)
     1BC:	0B00      	**prefx    0xB
     1BD:	CA14      	ld         al, #+0xACA

0x000001BE <.LVL4>:
     1BE:	0310      	ld         ah, #+0x3

0x000001BF <.LVL5>:
     1BF:	0100      	**prefx    0x1
     1C0:	B500      	**prefx    0xB5
     1C1:	279C      	bsr        +0xB527 <___libgatt_lib_db_3960:0xB6E8[p]>
     1C2:	E119      	ld         x, @0xFFE1 <register al>
     1C3:	0013      	ld         ah, @(0x0, y)
     1C4:	0122      	st         ah, @(+0x1, x)
     1C5:	0113      	ld         ah, @(+0x1, y)
     1C6:	0222      	st         ah, @(+0x2, x)
     1C7:	0100      	**prefx    0x1
     1C8:	B400      	**prefx    0xB4
     1C9:	579C      	bsr        +0xB457 <___libgatt_lib_db_3964:0xB620[p]>
     1CA:	030F      	leave      #+0x3

0x000001CB <___libgatt_lib_db_4579>:
     1CB:	030B      	enter      #+0x3
     1CC:	0617      	ld         al, @(+0x6, y)
     1CD:	2CF4      	beq        +0x2C <.LVL5:0x1F9[p]>
     1CE:	9400      	**prefx    0x94
     1CF:	4615      	ld         al, @0x9446 <BSS_START>
     1D0:	2CF0      	bne        +0x2C <.LVL5+0x3:0x1FC[p]>
     1D1:	3600      	**prefx    0x36
     1D2:	8315      	ld         al, @0x3583 <DATA_RODATA_END+0x1>
     1D3:	0284      	cmp        al, #+0x2
     1D4:	052C      	bcz        +0x5 <UART_RATE_115K2:0x1D9[p]>
     1D5:	0110      	ld         ah, #+0x1

0x000001D6 <.LVL2>:
     1D6:	3600      	**prefx    0x36
     1D7:	8321      	st         ah, @0x3583 <DATA_RODATA_END+0x1>
     1D8:	04E0      	bra        +0x4 <UART_RATE_115K2+0x3:0x1DC[p]>

0x000001D9 <.LVL3>:
     1D9:	0134      	add        al, #+0x1
     1DA:	3600      	**prefx    0x36
     1DB:	8325      	st         al, @0x3583 <DATA_RODATA_END+0x1>
     1DC:	3600      	**prefx    0x36
     1DD:	8315      	ld         al, @0x3583 <DATA_RODATA_END+0x1>
     1DE:	0284      	cmp        al, #+0x2
     1DF:	1D2C      	bcz        +0x1D <.LVL5+0x3:0x1FC[p]>
     1E0:	0114      	ld         al, #+0x1
     1E1:	9400      	**prefx    0x94
     1E2:	4625      	st         al, @0x9446 <BSS_START>
     1E3:	3600      	**prefx    0x36
     1E4:	8219      	ld         x, @0x3582 <DATA_RODATA_END>
     1E5:	3600      	**prefx    0x36
     1E6:	8215      	ld         al, @0x3582 <DATA_RODATA_END>
     1E7:	E100      	**prefx    0xE1
     1E8:	E138      	add        x, #-0x1F1F
     1E9:	0110      	ld         ah, #+0x1

0x000001EA <.LVL4>:
     1EA:	0023      	st         ah, @(0x0, y)
     1EB:	8700      	**prefx    0x87
     1EC:	6934      	add        al, #-0x7897
     1ED:	0127      	st         al, @(+0x1, y)
     1EE:	2D10      	ld         ah, #+0x2D
     1EF:	C700      	**prefx    0xC7
     1F0:	C014      	ld         al, #-0x3940
     1F1:	FF2B      	st         x, @(-0x1, y)
     1F2:	FF9F      	bsr        @(-0x1, y)
     1F3:	E199      	tst        @0xFFE1 <register al>
     1F4:	08F0      	bne        +0x8 <.LVL5+0x3:0x1FC[p]>
     1F5:	0010      	ld         ah, #+0x0
     1F6:	9400      	**prefx    0x94
     1F7:	4621      	st         ah, @0x9446 <BSS_START>
     1F8:	04E0      	bra        +0x4 <.LVL5+0x3:0x1FC[p]>

0x000001F9 <.LVL5>:
     1F9:	0014      	ld         al, #+0x0
     1FA:	3600      	**prefx    0x36
     1FB:	8325      	st         al, @0x3583 <DATA_RODATA_END+0x1>
     1FC:	8800      	**prefx    0x88
     1FD:	5010      	ld         ah, #-0x77B0

0x000001FE <.LVL6>:
     1FE:	0223      	st         ah, @(+0x2, y)
     1FF:	030F      	leave      #+0x3

0x00000200 <___libgatt_lib_db_4582>:
     200:	010B      	enter      #+0x1

0x00000201 <.LCFI1>:
     201:	0F17      	ld         al, @(+0xF, y)

0x00000202 <.LVL8>:
     202:	FB25      	st         al, @0xFFFB <(scratchpad)>
     203:	101B      	ld         x, @(+0x10, y)
     204:	F929      	st         x, @0xFFF9 <(scratchpad)>

0x00000205 <.LVL9>:
     205:	1417      	ld         al, @(+0x14, y)
     206:	FA25      	st         al, @0xFFFA <(scratchpad)>

0x00000207 <.LVL10>:
     207:	E315      	ld         al, @0xFFE3 <register uxl>
     208:	0100      	**prefx    0x1
     209:	80C4      	and        al, #0x80
     20A:	0BF4      	beq        +0xB <.LVL13:0x215[p]>

0x0000020B <.LVL11>:
     20B:	1017      	ld         al, @(+0x10, y)
     20C:	FF00      	**prefx    0xFF
     20D:	7FC4      	and        al, #0xFF7F
     20E:	1027      	st         al, @(+0x10, y)
     20F:	FA19      	ld         x, @0xFFFA <(scratchpad)>

0x00000210 <.LVL12>:
     210:	0016      	ld         al, @(0x0, x)
     211:	FF00      	**prefx    0xFF
     212:	7FC4      	and        al, #0xFF7F
     213:	0026      	st         al, @(0x0, x)
     214:	1EE0      	bra        +0x1E <.LVL17:0x232[p]>

0x00000215 <.LVL13>:
     215:	FB19      	ld         x, @0xFFFB <(scratchpad)>

0x00000216 <.LVL14>:
     216:	061A      	ld         x, @(+0x6, x)
     217:	F915      	ld         al, @0xFFF9 <(scratchpad)>
     218:	FF34      	add        al, #-0x1
     219:	F825      	st         al, @0xFFF8 <(scratchpad)>
     21A:	0114      	ld         al, #+0x1
     21B:	F8A1      	asl        @0xFFF8 <(scratchpad)>

0x0000021C <.LVL15>:
     21C:	E3C5      	and        al, @0xFFE3 <register uxl>
     21D:	15F4      	beq        +0x15 <.LVL17:0x232[p]>
     21E:	E315      	ld         al, @0xFFE3 <register uxl>
     21F:	F919      	ld         x, @0xFFF9 <(scratchpad)>
     220:	A100      	**prefx    0xA1
     221:	01C6      	and        al, @(-0x5EFF, x)
     222:	10F0      	bne        +0x10 <.LVL17:0x232[p]>
     223:	9400      	**prefx    0x94
     224:	4615      	ld         al, @0x9446 <BSS_START>
     225:	0DF0      	bne        +0xD <.LVL17:0x232[p]>
     226:	0188      	cmp        x, #+0x1
     227:	03F4      	beq        +0x3 <___libgatt_lib_db_459+0xB:0x22A[p]>
     228:	0B88      	cmp        x, #+0xB
     229:	09F0      	bne        +0x9 <.LVL17:0x232[p]>
     22A:	3600      	**prefx    0x36
     22B:	BA19      	ld         x, @0x35BA <sm_pairing_auth_ind>
     22C:	06F4      	beq        +0x6 <.LVL17:0x232[p]>
     22D:	FB15      	ld         al, @0xFFFB <(scratchpad)>
     22E:	FA11      	ld         ah, @0xFFFA <(scratchpad)>
     22F:	FF2B      	st         x, @(-0x1, y)
     230:	FF9F      	bsr        @(-0x1, y)

0x00000231 <.LVL16>:
     231:	140F      	leave      #+0x14

0x00000232 <.LVL17>:
     232:	010F      	leave      #+0x1

0x00000233 <___libgatt_lib_db_4583>:
     233:	050B      	enter      #+0x5

0x00000234 <.LCFI2>:
     234:	0717      	ld         al, @(+0x7, y)

0x00000235 <.LVL19>:
     235:	0327      	st         al, @(+0x3, y)
     236:	081B      	ld         x, @(+0x8, y)
     237:	022B      	st         x, @(+0x2, y)
     238:	3600      	**prefx    0x36
     239:	8211      	ld         ah, @0x3582 <DATA_RODATA_END>

0x0000023A <.LVL20>:
     23A:	E000      	**prefx    0xE0
     23B:	1930      	add        ah, #-0x1FE7
     23C:	E119      	ld         x, @0xFFE1 <register al>
     23D:	2A16      	ld         al, @(+0x2A, x)
     23E:	FF23      	st         ah, @(-0x1, y)
     23F:	FF9F      	bsr        @(-0x1, y)
     240:	3600      	**prefx    0x36
     241:	8219      	ld         x, @0x3582 <DATA_RODATA_END>
     242:	E100      	**prefx    0xE1
     243:	E138      	add        x, #-0x1F1F
     244:	0114      	ld         al, #+0x1
     245:	0027      	st         al, @(0x0, y)
     246:	0200      	**prefx    0x2
     247:	6914      	ld         al, #+0x269
     248:	0127      	st         al, @(+0x1, y)
     249:	0200      	**prefx    0x2
     24A:	C910      	ld         ah, #+0x1C9
     24B:	C400      	**prefx    0xC4
     24C:	8014      	ld         al, #-0x3C80
     24D:	FF2B      	st         x, @(-0x1, y)
     24E:	FF9F      	bsr        @(-0x1, y)
     24F:	031B      	ld         x, @(+0x3, y)
     250:	2A26      	st         al, @(+0x2A, x)
     251:	3600      	**prefx    0x36
     252:	8215      	ld         al, @0x3582 <DATA_RODATA_END>
     253:	F825      	st         al, @0xFFF8 <(scratchpad)>
     254:	A100      	**prefx    0xA1
     255:	D414      	ld         al, #-0x5F2C
     256:	021B      	ld         x, @(+0x2, y)
     257:	0036      	add        al, @(0x0, x)
     258:	E119      	ld         x, @0xFFE1 <register al>
     259:	0012      	ld         ah, @(0x0, x)
     25A:	F815      	ld         al, @0xFFF8 <(scratchpad)>
     25B:	9600      	**prefx    0x96
     25C:	F234      	add        al, #-0x6A0E
     25D:	F825      	st         al, @0xFFF8 <(scratchpad)>
     25E:	031B      	ld         x, @(+0x3, y)
     25F:	0516      	ld         al, @(+0x5, x)
     260:	021B      	ld         x, @(+0x2, y)
     261:	002B      	st         x, @(0x0, y)
     262:	F819      	ld         x, @0xFFF8 <(scratchpad)>
     263:	FF2B      	st         x, @(-0x1, y)
     264:	FF9F      	bsr        @(-0x1, y)
     265:	8400      	**prefx    0x84
     266:	CF14      	ld         al, #-0x7C31
     267:	0427      	st         al, @(+0x4, y)
     268:	050F      	leave      #+0x5

0x00000269 <.LFB6>:
     269:	020B      	enter      #+0x2

0x0000026A <.LCFI3>:
     26A:	3600      	**prefx    0x36
     26B:	8211      	ld         ah, @0x3582 <DATA_RODATA_END>
     26C:	8500      	**prefx    0x85
     26D:	0130      	add        ah, #-0x7AFF
     26E:	FF23      	st         ah, @(-0x1, y)
     26F:	FF9F      	bsr        @(-0x1, y)

0x00000270 <.LVL22>:
     270:	0027      	st         al, @(0x0, y)
     271:	14F4      	beq        +0x14 <.LASFDE26+0x9:0x285[p]>
     272:	0014      	ld         al, #+0x0
     273:	001B      	ld         x, @(0x0, y)
     274:	2A26      	st         al, @(+0x2A, x)
     275:	3600      	**prefx    0x36
     276:	8211      	ld         ah, @0x3582 <DATA_RODATA_END>
     277:	8800      	**prefx    0x88
     278:	0630      	add        ah, #-0x77FA
     279:	E315      	ld         al, @0xFFE3 <register uxl>
     27A:	FF23      	st         ah, @(-0x1, y)
     27B:	FF9F      	bsr        @(-0x1, y)
     27C:	3600      	**prefx    0x36
     27D:	8219      	ld         x, @0x3582 <DATA_RODATA_END>
     27E:	8800      	**prefx    0x88
     27F:	1138      	add        x, #-0x77EF
     280:	0017      	ld         al, @(0x0, y)
     281:	0C00      	**prefx    0xC
     282:	8010      	ld         ah, #+0xB80
     283:	FF2B      	st         x, @(-0x1, y)
     284:	FF9F      	bsr        @(-0x1, y)
     285:	020F      	leave      #+0x2

0x00000286 <___libgatt_lib_db_4580>:
     286:	010B      	enter      #+0x1

0x00000287 <.LCFI4>:
     287:	9300      	**prefx    0x93
     288:	6615      	ld         al, @0x9366 <___libgatt_lib_db_18+0x1>

0x00000289 <.LVL25>:
     289:	0284      	cmp        al, #+0x2
     28A:	05F4      	beq        +0x5 <.LVL25+0x6:0x28F[p]>
     28B:	031B      	ld         x, @(+0x3, y)
     28C:	0014      	ld         al, #+0x0
     28D:	0526      	st         al, @(+0x5, x)
     28E:	0626      	st         al, @(+0x6, x)
     28F:	010F      	leave      #+0x1

0x00000290 <___libgatt_lib_db_4578>:
     290:	020B      	enter      #+0x2

0x00000291 <.LCFI5>:
     291:	0617      	ld         al, @(+0x6, y)

0x00000292 <.LVL27>:
     292:	8C00      	**prefx    0x8C
     293:	DC84      	cmp        al, #-0x7424
     294:	1AF0      	bne        +0x1A <.LBE11:0x2AE[p]>
     295:	0517      	ld         al, @(+0x5, y)

0x00000296 <.LVL28>:
     296:	0684      	cmp        al, #+0x6
     297:	17F0      	bne        +0x17 <.LBE11:0x2AE[p]>
     298:	041B      	ld         x, @(+0x4, y)

0x00000299 <.LVL29>:
     299:	051A      	ld         x, @(+0x5, x)

0x0000029A <.LVL30>:
     29A:	002B      	st         x, @(0x0, y)

0x0000029B <.LBB10>:
     29B:	3600      	**prefx    0x36
     29C:	8219      	ld         x, @0x3582 <DATA_RODATA_END>

0x0000029D <.LBE10>:
     29D:	B700      	**prefx    0xB7
     29E:	E838      	add        x, #-0x4918
     29F:	0B00      	**prefx    0xB
     2A0:	D014      	ld         al, #+0xAD0

0x000002A1 <.LVL31>:
     2A1:	0210      	ld         ah, #+0x2

0x000002A2 <.LVL32>:
     2A2:	FF2B      	st         x, @(-0x1, y)
     2A3:	FF9F      	bsr        @(-0x1, y)
     2A4:	E119      	ld         x, @0xFFE1 <register al>

0x000002A5 <.LBB11>:
     2A5:	0017      	ld         al, @(0x0, y)
     2A6:	0126      	st         al, @(+0x1, x)
     2A7:	3600      	**prefx    0x36
     2A8:	8211      	ld         ah, @0x3582 <DATA_RODATA_END>
     2A9:	B600      	**prefx    0xB6
     2AA:	2030      	add        ah, #-0x49E0
     2AB:	E315      	ld         al, @0xFFE3 <register uxl>
     2AC:	FF23      	st         ah, @(-0x1, y)
     2AD:	FF9F      	bsr        @(-0x1, y)

0x000002AE <.LBE11>:
     2AE:	020F      	leave      #+0x2

0x000002AF <___libgatt_lib_db_4591>:
     2AF:	0F0B      	enter      #+0xF

0x000002B0 <.LCFI6>:
     2B0:	0B27      	st         al, @(+0xB, y)
     2B1:	0C23      	st         ah, @(+0xC, y)
     2B2:	1690      	smult      #+0x16

0x000002B3 <.LVL35>:
     2B3:	9500      	**prefx    0x95
     2B4:	2E34      	add        al, #-0x6AD2
     2B5:	0D27      	st         al, @(+0xD, y)
     2B6:	E119      	ld         x, @0xFFE1 <register al>
     2B7:	001A      	ld         x, @(0x0, x)
     2B8:	092B      	st         x, @(+0x9, y)
     2B9:	0810      	ld         ah, #+0x8
     2BA:	0023      	st         ah, @(0x0, y)
     2BB:	E415      	ld         al, @0xFFE4 <register uy>
     2BC:	0134      	add        al, #+0x1
     2BD:	0F13      	ld         ah, @(+0xF, y)
     2BE:	0100      	**prefx    0x1
     2BF:	8A00      	**prefx    0x8A
     2C0:	F69C      	bsr        +0x89F6 <MemCopyPack:0x8CB6[p]>
     2C1:	3600      	**prefx    0x36
     2C2:	8219      	ld         x, @0x3582 <DATA_RODATA_END>
     2C3:	8600      	**prefx    0x86
     2C4:	C838      	add        x, #-0x7A38
     2C5:	E415      	ld         al, @0xFFE4 <register uy>
     2C6:	0134      	add        al, #+0x1
     2C7:	0C13      	ld         ah, @(+0xC, y)
     2C8:	FF2B      	st         x, @(-0x1, y)
     2C9:	FF9F      	bsr        @(-0x1, y)
     2CA:	0A27      	st         al, @(+0xA, y)
     2CB:	0FC4      	and        al, #0xF
     2CC:	0684      	cmp        al, #+0x6
     2CD:	0BFC      	bcs        +0xB <.LVL39+0x1:0x2D8[p]>

0x000002CE <.LVL38>:
     2CE:	3600      	**prefx    0x36
     2CF:	8211      	ld         ah, @0x3582 <DATA_RODATA_END>
     2D0:	8600      	**prefx    0x86
     2D1:	8030      	add        ah, #-0x7A80
     2D2:	0A17      	ld         al, @(+0xA, y)
     2D3:	FF23      	st         ah, @(-0x1, y)
     2D4:	FF9F      	bsr        @(-0x1, y)
     2D5:	9300      	**prefx    0x93
     2D6:	6785      	cmp        al, @0x9367 <___libgatt_lib_db_18+0x2>

0x000002D7 <.LVL39>:
     2D7:	09F8      	bcc        +0x9 <.LVL41:0x2E0[p]>
     2D8:	3600      	**prefx    0x36
     2D9:	8211      	ld         ah, @0x3582 <DATA_RODATA_END>
     2DA:	D000      	**prefx    0xD0
     2DB:	1630      	add        ah, #-0x2FEA
     2DC:	0917      	ld         al, @(+0x9, y)

0x000002DD <.LVL40>:
     2DD:	FF23      	st         ah, @(-0x1, y)
     2DE:	FF9F      	bsr        @(-0x1, y)
     2DF:	23E0      	bra        +0x23 <.LVL46:0x302[p]>

0x000002E0 <.LVL41>:
     2E0:	0A13      	ld         ah, @(+0xA, y)
     2E1:	0D1B      	ld         x, @(+0xD, y)
     2E2:	1522      	st         ah, @(+0x15, x)
     2E3:	109B      	tst        @(+0x10, y)
     2E4:	03F4      	beq        +0x3 <.LVL42+0x2:0x2E7[p]>

0x000002E5 <.LVL42>:
     2E5:	101B      	ld         x, @(+0x10, y)
     2E6:	2B26      	st         al, @(+0x2B, x)
     2E7:	3600      	**prefx    0x36
     2E8:	8219      	ld         x, @0x3582 <DATA_RODATA_END>
     2E9:	9700      	**prefx    0x97
     2EA:	389A      	tst        @(-0x68C8, x)
     2EB:	10F4      	beq        +0x10 <.LVL44:0x2FB[p]>
     2EC:	3600      	**prefx    0x36
     2ED:	8211      	ld         ah, @0x3582 <DATA_RODATA_END>
     2EE:	F821      	st         ah, @0xFFF8 <(scratchpad)>
     2EF:	0B17      	ld         al, @(+0xB, y)

0x000002F0 <.LVL43>:
     2F0:	1790      	smult      #+0x17
     2F1:	E119      	ld         x, @0xFFE1 <register al>
     2F2:	9700      	**prefx    0x97
     2F3:	D716      	ld         al, @(-0x6929, x)
     2F4:	F819      	ld         x, @0xFFF8 <(scratchpad)>
     2F5:	9700      	**prefx    0x97
     2F6:	381A      	ld         x, @(-0x68C8, x)
     2F7:	0A13      	ld         ah, @(+0xA, y)
     2F8:	FF2B      	st         x, @(-0x1, y)
     2F9:	FF9F      	bsr        @(-0x1, y)
     2FA:	08E0      	bra        +0x8 <.LVL46:0x302[p]>

0x000002FB <.LVL44>:
     2FB:	3600      	**prefx    0x36
     2FC:	8211      	ld         ah, @0x3582 <DATA_RODATA_END>
     2FD:	8A00      	**prefx    0x8A
     2FE:	8530      	add        ah, #-0x767B
     2FF:	0B17      	ld         al, @(+0xB, y)

0x00000300 <.LVL45>:
     300:	FF23      	st         ah, @(-0x1, y)
     301:	FF9F      	bsr        @(-0x1, y)

0x00000302 <.LVL46>:
     302:	0F0F      	leave      #+0xF

0x00000303 <___libgatt_lib_db_4581>:
     303:	050B      	enter      #+0x5

0x00000304 <.LCFI7>:
     304:	0327      	st         al, @(+0x3, y)
     305:	3600      	**prefx    0x36
     306:	8211      	ld         ah, @0x3582 <DATA_RODATA_END>
     307:	8500      	**prefx    0x85
     308:	4430      	add        ah, #-0x7ABC
     309:	E119      	ld         x, @0xFFE1 <register al>
     30A:	0016      	ld         al, @(0x0, x)

0x0000030B <.LVL48>:
     30B:	FF23      	st         ah, @(-0x1, y)
     30C:	FF9F      	bsr        @(-0x1, y)
     30D:	0227      	st         al, @(+0x2, y)
     30E:	9300      	**prefx    0x93
     30F:	6799      	tst        @0x9367 <___libgatt_lib_db_18+0x2>
     310:	24F4      	beq        +0x24 <.LVL51+0x1:0x334[p]>
     311:	029B      	tst        @(+0x2, y)
     312:	18F4      	beq        +0x18 <.LEFDE4+0x2:0x32A[p]>
     313:	021B      	ld         x, @(+0x2, y)
     314:	0616      	ld         al, @(+0x6, x)
     315:	1C00      	**prefx    0x1C
     316:	0FC4      	and        al, #0x1C0F
     317:	1000      	**prefx    0x10
     318:	0084      	cmp        al, #+0x1000
     319:	11F0      	bne        +0x11 <.LEFDE4+0x2:0x32A[p]>
     31A:	3600      	**prefx    0x36
     31B:	8215      	ld         al, @0x3582 <DATA_RODATA_END>
     31C:	E119      	ld         x, @0xFFE1 <register al>
     31D:	D000      	**prefx    0xD0
     31E:	4938      	add        x, #-0x2FB7
     31F:	F829      	st         x, @0xFFF8 <(scratchpad)>
     320:	0217      	ld         al, @(+0x2, y)
     321:	0934      	add        al, #+0x9
     322:	0227      	st         al, @(+0x2, y)
     323:	031B      	ld         x, @(+0x3, y)
     324:	0016      	ld         al, @(0x0, x)
     325:	0213      	ld         ah, @(+0x2, y)
     326:	F819      	ld         x, @0xFFF8 <(scratchpad)>
     327:	FF2B      	st         x, @(-0x1, y)
     328:	FF9F      	bsr        @(-0x1, y)
     329:	28E0      	bra        +0x28 <.LVL56:0x351[p]>
     32A:	3600      	**prefx    0x36
     32B:	8211      	ld         ah, @0x3582 <DATA_RODATA_END>
     32C:	9200      	**prefx    0x92
     32D:	3730      	add        ah, #-0x6DC9
     32E:	031B      	ld         x, @(+0x3, y)
     32F:	0016      	ld         al, @(0x0, x)
     330:	FF23      	st         ah, @(-0x1, y)
     331:	FF9F      	bsr        @(-0x1, y)
     332:	FF84      	cmp        al, #-0x1

0x00000333 <.LVL51>:
     333:	0AF0      	bne        +0xA <.LVL53:0x33D[p]>
     334:	3600      	**prefx    0x36
     335:	8211      	ld         ah, @0x3582 <DATA_RODATA_END>
     336:	D000      	**prefx    0xD0
     337:	1630      	add        ah, #-0x2FEA
     338:	031B      	ld         x, @(+0x3, y)
     339:	0016      	ld         al, @(0x0, x)

0x0000033A <.LVL52>:
     33A:	FF23      	st         ah, @(-0x1, y)
     33B:	FF9F      	bsr        @(-0x1, y)
     33C:	15E0      	bra        +0x15 <.LVL56:0x351[p]>

0x0000033D <.LVL53>:
     33D:	3600      	**prefx    0x36
     33E:	B919      	ld         x, @0x35B9 <sm_long_term_key_ind>
     33F:	F829      	st         x, @0xFFF8 <(scratchpad)>
     340:	031B      	ld         x, @(+0x3, y)
     341:	0912      	ld         ah, @(+0x9, x)
     342:	F899      	tst        @0xFFF8 <(scratchpad)>
     343:	07F4      	beq        +0x7 <.LVL55:0x34A[p]>
     344:	0138      	add        x, #+0x1
     345:	002B      	st         x, @(0x0, y)
     346:	F819      	ld         x, @0xFFF8 <(scratchpad)>
     347:	FF2B      	st         x, @(-0x1, y)
     348:	FF9F      	bsr        @(-0x1, y)

0x00000349 <.LVL54>:
     349:	08E0      	bra        +0x8 <.LVL56:0x351[p]>

0x0000034A <.LVL55>:
     34A:	031B      	ld         x, @(+0x3, y)
     34B:	0138      	add        x, #+0x1
     34C:	002B      	st         x, @(0x0, y)
     34D:	021B      	ld         x, @(+0x2, y)
     34E:	012B      	st         x, @(+0x1, y)
     34F:	FF00      	**prefx    0xFF
     350:	5F9C      	bsr        -0xA1 <___libgatt_lib_db_4591:0x2AF[p]>

0x00000351 <.LVL56>:
     351:	050F      	leave      #+0x5

0x00000352 <GattGetDatabase>:
     352:	010B      	enter      #+0x1
     353:	E119      	ld         x, @0xFFE1 <register al>
     354:	0100      	**prefx    0x1
     355:	F914      	ld         al, #+0xF9
     356:	0026      	st         al, @(0x0, x)
     357:	3600      	**prefx    0x36
     358:	BF14      	ld         al, #+0x35BF
     359:	010F      	leave      #+0x1

0x0000035A <AppProcessSystemEvent>:
     35A:	00E2      	bra        0x0, x

0x0000035B <gap_name_handler_w>:
     35B:	0014      	ld         al, #+0x0
     35C:	00E2      	bra        0x0, x

0x0000035D <i2c_transfer_handler_r>:
     35D:	070B      	enter      #+0x7
     35E:	E119      	ld         x, @0xFFE1 <register al>
     35F:	0316      	ld         al, @(+0x3, x)
     360:	F825      	st         al, @0xFFF8 <(scratchpad)>
     361:	0116      	ld         al, @(+0x1, x)
     362:	0327      	st         al, @(+0x3, y)
     363:	F815      	ld         al, @0xFFF8 <(scratchpad)>
     364:	0427      	st         al, @(+0x4, y)
     365:	0A00      	**prefx    0xA
     366:	F114      	ld         al, #+0x9F1
     367:	0527      	st         al, @(+0x5, y)
     368:	0532      	add        ah, @(+0x5, x)
     369:	0717      	ld         al, @(+0x7, y)
     36A:	0027      	st         al, @(0x0, y)
     36B:	081B      	ld         x, @(+0x8, y)
     36C:	001A      	ld         x, @(0x0, x)
     36D:	012B      	st         x, @(+0x1, y)
     36E:	0114      	ld         al, #+0x1
     36F:	0227      	st         al, @(+0x2, y)
     370:	E415      	ld         al, @0xFFE4 <register uy>
     371:	0334      	add        al, #+0x3
     372:	0600      	**prefx    0x6
     373:	7E9C      	bsr        +0x67E <builtin_i2c_master_transfer:0x9F1[p]>
     374:	070F      	leave      #+0x7

0x00000375 <i2c_transfer_handler_w>:
     375:	070B      	enter      #+0x7
     376:	E119      	ld         x, @0xFFE1 <register al>
     377:	0316      	ld         al, @(+0x3, x)
     378:	F825      	st         al, @0xFFF8 <(scratchpad)>
     379:	0116      	ld         al, @(+0x1, x)
     37A:	0327      	st         al, @(+0x3, y)
     37B:	F815      	ld         al, @0xFFF8 <(scratchpad)>
     37C:	0427      	st         al, @(+0x4, y)
     37D:	0A00      	**prefx    0xA
     37E:	F114      	ld         al, #+0x9F1
     37F:	0527      	st         al, @(+0x5, y)
     380:	0532      	add        ah, @(+0x5, x)
     381:	0717      	ld         al, @(+0x7, y)
     382:	0027      	st         al, @(0x0, y)
     383:	0817      	ld         al, @(+0x8, y)
     384:	0127      	st         al, @(+0x1, y)
     385:	0014      	ld         al, #+0x0
     386:	0227      	st         al, @(+0x2, y)
     387:	E415      	ld         al, @0xFFE4 <register uy>
     388:	0334      	add        al, #+0x3
     389:	0600      	**prefx    0x6
     38A:	679C      	bsr        +0x667 <builtin_i2c_master_transfer:0x9F1[p]>
     38B:	070F      	leave      #+0x7

0x0000038C <AppPowerOnReset>:
     38C:	00E2      	bra        0x0, x

0x0000038D <AppInit>:
     38D:	030B      	enter      #+0x3
     38E:	0300      	**prefx    0x3
     38F:	6B9C      	bsr        +0x36B <csr1010_init:0x6FA[p]>
     390:	0014      	ld         al, #+0x0
     391:	0027      	st         al, @(0x0, y)
     392:	0010      	ld         ah, #+0x0
     393:	1814      	ld         al, #+0x18
     394:	0100      	**prefx    0x1
     395:	F300      	**prefx    0xF3
     396:	D19C      	bsr        +0xF2D1 <PioSetModes:0xF667[p]>
     397:	0314      	ld         al, #+0x3
     398:	0110      	ld         ah, #+0x1
     399:	0100      	**prefx    0x1
     39A:	F400      	**prefx    0xF4
     39B:	D99C      	bsr        +0xF3D9 <PioSetDir:0xF774[p]>
     39C:	0414      	ld         al, #+0x4
     39D:	0110      	ld         ah, #+0x1
     39E:	0100      	**prefx    0x1
     39F:	F400      	**prefx    0xF4
     3A0:	D49C      	bsr        +0xF3D4 <PioSetDir:0xF774[p]>
     3A1:	0714      	ld         al, #+0x7
     3A2:	0027      	st         al, @(0x0, y)
     3A3:	0010      	ld         ah, #+0x0
     3A4:	1814      	ld         al, #+0x18
     3A5:	0100      	**prefx    0x1
     3A6:	F200      	**prefx    0xF2
     3A7:	659C      	bsr        +0xF265 <PioSetPullModes:0xF60C[p]>
     3A8:	0414      	ld         al, #+0x4
     3A9:	0110      	ld         ah, #+0x1
     3AA:	0100      	**prefx    0x1
     3AB:	F200      	**prefx    0xF2
     3AC:	009C      	bsr        +0xF200 <PioSet:0xF5AC[p]>
     3AD:	0314      	ld         al, #+0x3
     3AE:	0110      	ld         ah, #+0x1
     3AF:	0100      	**prefx    0x1
     3B0:	F200      	**prefx    0xF2
     3B1:	FB9C      	bsr        +0xF1FB <PioSet:0xF5AC[p]>
     3B2:	0200      	**prefx    0x2
     3B3:	6C9C      	bsr        +0x26C <ble_data_init:0x61F[p]>
     3B4:	3700      	**prefx    0x37
     3B5:	BC14      	ld         al, #+0x36BC
     3B6:	0100      	**prefx    0x1
     3B7:	BA9C      	bsr        +0xBA <ble_register_service:0x471[p]>
     3B8:	3700      	**prefx    0x37
     3B9:	CA14      	ld         al, #+0x36CA
     3BA:	0100      	**prefx    0x1
     3BB:	B69C      	bsr        +0xB6 <ble_register_service:0x471[p]>
     3BC:	0014      	ld         al, #+0x0
     3BD:	0127      	st         al, @(+0x1, y)
     3BE:	E415      	ld         al, @0xFFE4 <register uy>
     3BF:	0134      	add        al, #+0x1
     3C0:	929C      	bsr        -0x6E <GattGetDatabase:0x352[p]>
     3C1:	E111      	ld         ah, @0xFFE1 <register al>
     3C2:	0117      	ld         al, @(+0x1, y)
     3C3:	0100      	**prefx    0x1
     3C4:	AD00      	**prefx    0xAD
     3C5:	199C      	bsr        +0xAD19 <GattAddDatabaseReq:0xB0DE[p]>
     3C6:	030F      	leave      #+0x3

0x000003C7 <i2c_setup_handler_w>:
     3C7:	010B      	enter      #+0x1
     3C8:	F825      	st         al, @0xFFF8 <(scratchpad)>
     3C9:	0217      	ld         al, @(+0x2, y)
     3CA:	0684      	cmp        al, #+0x6
     3CB:	022C      	bcz        +0x2 <.LASFDE20+0x1:0x3CD[p]>
     3CC:	0614      	ld         al, #+0x6
     3CD:	F811      	ld         ah, @0xFFF8 <(scratchpad)>
     3CE:	011B      	ld         x, @(+0x1, y)
     3CF:	FD09      	bc2        
     3D0:	F819      	ld         x, @0xFFF8 <(scratchpad)>
     3D1:	029A      	tst        @(+0x2, x)
     3D2:	06F0      	bne        +0x6 <.LEFDE20:0x3D8[p]>
     3D3:	0316      	ld         al, @(+0x3, x)
     3D4:	0284      	cmp        al, #+0x2
     3D5:	03F8      	bcc        +0x3 <.LEFDE20:0x3D8[p]>
     3D6:	0014      	ld         al, #+0x0
     3D7:	06E0      	bra        +0x6 <.LASFDE22+0x1:0x3DD[p]>
     3D8:	0014      	ld         al, #+0x0
     3D9:	F819      	ld         x, @0xFFF8 <(scratchpad)>
     3DA:	0226      	st         al, @(+0x2, x)
     3DB:	0114      	ld         al, #+0x1
     3DC:	0326      	st         al, @(+0x3, x)
     3DD:	010F      	leave      #+0x1

0x000003DE <i2c_setup_handler_r>:
     3DE:	010B      	enter      #+0x1
     3DF:	F825      	st         al, @0xFFF8 <(scratchpad)>
     3E0:	021B      	ld         x, @(+0x2, y)
     3E1:	0016      	ld         al, @(0x0, x)
     3E2:	0684      	cmp        al, #+0x6
     3E3:	02F8      	bcc        +0x2 <i2c_setup_handler_r+0x7:0x3E5[p]>
     3E4:	0614      	ld         al, #+0x6
     3E5:	0026      	st         al, @(0x0, x)
     3E6:	0113      	ld         ah, @(+0x1, y)
     3E7:	F819      	ld         x, @0xFFF8 <(scratchpad)>
     3E8:	FD09      	bc2        
     3E9:	010F      	leave      #+0x1

0x000003EA <gap_name_handler_r>:
     3EA:	030B      	enter      #+0x3
     3EB:	0123      	st         ah, @(+0x1, y)
     3EC:	E415      	ld         al, @0xFFE4 <register uy>
     3ED:	0300      	**prefx    0x3
     3EE:	2B9C      	bsr        +0x32B <ble_get_name_and_length:0x719[p]>
     3EF:	F825      	st         al, @0xFFF8 <(scratchpad)>
     3F0:	0013      	ld         ah, @(0x0, y)
     3F1:	0153      	sub        ah, @(+0x1, y)
     3F2:	041B      	ld         x, @(+0x4, y)
     3F3:	0016      	ld         al, @(0x0, x)
     3F4:	E085      	cmp        al, @0xFFE0 <register ah>
     3F5:	022C      	bcz        +0x2 <.LSCIE0+0x3:0x3F7[p]>
     3F6:	E015      	ld         al, @0xFFE0 <register ah>
     3F7:	041B      	ld         x, @(+0x4, y)
     3F8:	0026      	st         al, @(0x0, x)
     3F9:	011B      	ld         x, @(+0x1, y)
     3FA:	F839      	add        x, @0xFFF8 <(scratchpad)>
     3FB:	0313      	ld         ah, @(+0x3, y)
     3FC:	FD09      	bc2        
     3FD:	030F      	leave      #+0x3

0x000003FE <AppProcessLmEvent>:
     3FE:	030B      	enter      #+0x3
     3FF:	0027      	st         al, @(0x0, y)
     400:	0123      	st         ah, @(+0x1, y)
     401:	3600      	**prefx    0x36
     402:	8515      	ld         al, @0x3585 <didBugcheck>
     403:	6CF0      	bne        +0x6C <.LASFDE10+0x13:0x46F[p]>
     404:	0214      	ld         al, #+0x2
     405:	6B00      	**prefx    0x6B
     406:	2C9C      	bsr        +0x6B2C <load_img:0x6F32[p]>
     407:	0017      	ld         al, @(0x0, y)
     408:	0B00      	**prefx    0xB
     409:	8484      	cmp        al, #+0xA84
     40A:	3BF4      	beq        +0x3B <.LASFDE6+0x9:0x445[p]>
     40B:	0B00      	**prefx    0xB
     40C:	8584      	cmp        al, #+0xA85
     40D:	14F8      	bcc        +0x14 <.LASFDE2+0x5:0x421[p]>
     40E:	3E84      	cmp        al, #+0x3E
     40F:	3DF4      	beq        +0x3D <.LASFDE8:0x44C[p]>
     410:	3F84      	cmp        al, #+0x3F
     411:	06F8      	bcc        +0x6 <.LASFDE0+0x13:0x417[p]>
     412:	0584      	cmp        al, #+0x5
     413:	42F4      	beq        +0x42 <.LASFDE8+0x9:0x455[p]>
     414:	0884      	cmp        al, #+0x8
     415:	5AF0      	bne        +0x5A <.LASFDE10+0x13:0x46F[p]>
     416:	3CE0      	bra        +0x3C <.LASFDE8+0x6:0x452[p]>
     417:	0017      	ld         al, @(0x0, y)
     418:	0B00      	**prefx    0xB
     419:	8084      	cmp        al, #+0xA80
     41A:	23F4      	beq        +0x23 <.LASFDE6+0x1:0x43D[p]>
     41B:	0B00      	**prefx    0xB
     41C:	8284      	cmp        al, #+0xA82
     41D:	24F4      	beq        +0x24 <.LASFDE6+0x5:0x441[p]>
     41E:	4084      	cmp        al, #+0x40
     41F:	50F0      	bne        +0x50 <.LASFDE10+0x13:0x46F[p]>
     420:	2FE0      	bra        +0x2F <.LASFDE8+0x3:0x44F[p]>
     421:	0017      	ld         al, @(0x0, y)
     422:	0B00      	**prefx    0xB
     423:	CA84      	cmp        al, #+0xACA
     424:	41F4      	beq        +0x41 <.LASFDE10+0x9:0x465[p]>
     425:	0B00      	**prefx    0xB
     426:	CB84      	cmp        al, #+0xACB
     427:	0BF8      	bcc        +0xB <.LASFDE4+0x6:0x432[p]>
     428:	0B00      	**prefx    0xB
     429:	C084      	cmp        al, #+0xAC0
     42A:	43F4      	beq        +0x43 <.LASFDE10+0x11:0x46D[p]>
     42B:	0B00      	**prefx    0xB
     42C:	C384      	cmp        al, #+0xAC3
     42D:	3CF4      	beq        +0x3C <.LASFDE10+0xD:0x469[p]>
     42E:	0B00      	**prefx    0xB
     42F:	9C84      	cmp        al, #+0xA9C
     430:	3FF0      	bne        +0x3F <.LASFDE10+0x13:0x46F[p]>
     431:	17E0      	bra        +0x17 <.LEFDE6:0x448[p]>
     432:	0017      	ld         al, @(0x0, y)
     433:	0B00      	**prefx    0xB
     434:	EA84      	cmp        al, #+0xAEA
     435:	2CF4      	beq        +0x2C <.LASFDE10+0x5:0x461[p]>
     436:	0B00      	**prefx    0xB
     437:	F884      	cmp        al, #+0xAF8
     438:	23F4      	beq        +0x23 <.LEFDE8+0x3:0x45B[p]>
     439:	0B00      	**prefx    0xB
     43A:	E984      	cmp        al, #+0xAE9
     43B:	34F0      	bne        +0x34 <.LASFDE10+0x13:0x46F[p]>
     43C:	21E0      	bra        +0x21 <.LASFDE10+0x1:0x45D[p]>
     43D:	0117      	ld         al, @(+0x1, y)
     43E:	0300      	**prefx    0x3
     43F:	7D9C      	bsr        +0x37D <ble_gatt_add_db_completed:0x7BC[p]>
     440:	2FE0      	bra        +0x2F <.LASFDE10+0x13:0x46F[p]>
     441:	0117      	ld         al, @(+0x1, y)
     442:	0400      	**prefx    0x4
     443:	979C      	bsr        +0x397 <ble_gatt_connect_completed:0x7DA[p]>
     444:	2BE0      	bra        +0x2B <.LASFDE10+0x13:0x46F[p]>
     445:	0600      	**prefx    0x6
     446:	889C      	bsr        +0x588 <ble_gatt_connect_cancelled:0x9CE[p]>
     447:	28E0      	bra        +0x28 <.LASFDE10+0x13:0x46F[p]>
     448:	0117      	ld         al, @(+0x1, y)
     449:	0300      	**prefx    0x3
     44A:	D69C      	bsr        +0x2D6 <ble_gatt_access_indication:0x720[p]>
     44B:	24E0      	bra        +0x24 <.LASFDE10+0x13:0x46F[p]>
     44C:	0117      	ld         al, @(+0x1, y)
     44D:	609C      	bsr        +0x60 <ble_lm_connection_completed:0x4AD[p]>
     44E:	21E0      	bra        +0x21 <.LASFDE10+0x13:0x46F[p]>
     44F:	0117      	ld         al, @(+0x1, y)
     450:	709C      	bsr        +0x70 <ble_lm_connection_updated:0x4C0[p]>
     451:	1EE0      	bra        +0x1E <.LASFDE10+0x13:0x46F[p]>
     452:	0117      	ld         al, @(+0x1, y)
     453:	6B9C      	bsr        +0x6B <ble_lm_encryption_changed:0x4BE[p]>
     454:	1BE0      	bra        +0x1B <.LASFDE10+0x13:0x46F[p]>
     455:	0117      	ld         al, @(+0x1, y)
     456:	0134      	add        al, #+0x1
     457:	0127      	st         al, @(+0x1, y)
     458:	0200      	**prefx    0x2
     459:	529C      	bsr        +0x252 <ble_lm_connection_closed:0x6AB[p]>
     45A:	15E0      	bra        +0x15 <.LASFDE10+0x13:0x46F[p]>
     45B:	649C      	bsr        +0x64 <ble_ls_radio_event:0x4BF[p]>
     45C:	13E0      	bra        +0x13 <.LASFDE10+0x13:0x46F[p]>
     45D:	0117      	ld         al, @(+0x1, y)
     45E:	0100      	**prefx    0x1
     45F:	379C      	bsr        +0x137 <ble_ls_conn_param_update_completed:0x596[p]>
     460:	0FE0      	bra        +0xF <.LASFDE10+0x13:0x46F[p]>
     461:	0117      	ld         al, @(+0x1, y)
     462:	0100      	**prefx    0x1
     463:	5D9C      	bsr        +0x15D <ble_ls_conn_param_update_indication:0x5C0[p]>
     464:	0BE0      	bra        +0xB <.LASFDE10+0x13:0x46F[p]>
     465:	0117      	ld         al, @(+0x1, y)
     466:	0100      	**prefx    0x1
     467:	049C      	bsr        +0x104 <ble_sm_diversifier_approval_indication:0x56B[p]>
     468:	07E0      	bra        +0x7 <.LASFDE10+0x13:0x46F[p]>
     469:	0117      	ld         al, @(+0x1, y)
     46A:	0100      	**prefx    0x1
     46B:	CB9C      	bsr        +0xCB <ble_sm_keys_indication:0x536[p]>
     46C:	03E0      	bra        +0x3 <.LASFDE10+0x13:0x46F[p]>
     46D:	0117      	ld         al, @(+0x1, y)
     46E:	699C      	bsr        +0x69 <ble_sm_simple_pairing_completed:0x4D7[p]>
     46F:	0114      	ld         al, #+0x1
     470:	030F      	leave      #+0x3

0x00000471 <ble_register_service>:
     471:	010B      	enter      #+0x1
     472:	E119      	ld         x, @0xFFE1 <register al>
     473:	3600      	**prefx    0x36
     474:	8415      	ld         al, @0x3584 <services>
     475:	0526      	st         al, @(+0x5, x)
     476:	3600      	**prefx    0x36
     477:	8429      	st         x, @0x3584 <services>
     478:	010F      	leave      #+0x1

0x00000479 <ble_get_attribute>:
     479:	010B      	enter      #+0x1
     47A:	FA25      	st         al, @0xFFFA <(scratchpad)>
     47B:	FF23      	st         ah, @(-0x1, y)
     47C:	3600      	**prefx    0x36
     47D:	8415      	ld         al, @0x3584 <services>
     47E:	F825      	st         al, @0xFFF8 <(scratchpad)>
     47F:	2AE0      	bra        +0x2A <.LASFDE2+0xD:0x4A9[p]>
     480:	FA15      	ld         al, @0xFFFA <(scratchpad)>
     481:	F819      	ld         x, @0xFFF8 <(scratchpad)>
     482:	0186      	cmp        al, @(+0x1, x)
     483:	23FC      	bcs        +0x23 <.LASFDE2+0xA:0x4A6[p]>
     484:	0286      	cmp        al, @(+0x2, x)
     485:	022C      	bcz        +0x2 <.LASFDE0+0x3:0x487[p]>
     486:	20E0      	bra        +0x20 <.LASFDE2+0xA:0x4A6[p]>
     487:	F819      	ld         x, @0xFFF8 <(scratchpad)>
     488:	041A      	ld         x, @(+0x4, x)
     489:	FB29      	st         x, @0xFFFB <(scratchpad)>
     48A:	0014      	ld         al, #+0x0
     48B:	17E0      	bra        +0x17 <.LASFDE2+0x6:0x4A2[p]>
     48C:	F915      	ld         al, @0xFFF9 <(scratchpad)>
     48D:	02A0      	asl        #0x2
     48E:	E111      	ld         ah, @0xFFE1 <register al>
     48F:	F819      	ld         x, @0xFFF8 <(scratchpad)>
     490:	0316      	ld         al, @(+0x3, x)
     491:	E035      	add        al, @0xFFE0 <register ah>
     492:	E119      	ld         x, @0xFFE1 <register al>
     493:	0016      	ld         al, @(0x0, x)
     494:	FA85      	cmp        al, @0xFFFA <(scratchpad)>
     495:	0BF0      	bne        +0xB <.LASFDE2+0x4:0x4A0[p]>
     496:	F815      	ld         al, @0xFFF8 <(scratchpad)>
     497:	FF1B      	ld         x, @(-0x1, y)
     498:	0026      	st         al, @(0x0, x)
     499:	F819      	ld         x, @0xFFF8 <(scratchpad)>
     49A:	0316      	ld         al, @(+0x3, x)
     49B:	011B      	ld         x, @(+0x1, y)
     49C:	E035      	add        al, @0xFFE0 <register ah>
     49D:	0026      	st         al, @(0x0, x)
     49E:	0014      	ld         al, #+0x0
     49F:	0DE0      	bra        +0xD <.LASFDE2+0x10:0x4AC[p]>
     4A0:	F915      	ld         al, @0xFFF9 <(scratchpad)>
     4A1:	0134      	add        al, #+0x1
     4A2:	F925      	st         al, @0xFFF9 <(scratchpad)>
     4A3:	FB85      	cmp        al, @0xFFFB <(scratchpad)>
     4A4:	E8FC      	bcs        -0x18 <.LASFDE0+0x8:0x48C[p]>
     4A5:	06E0      	bra        +0x6 <.LASFDE2+0xF:0x4AB[p]>
     4A6:	F819      	ld         x, @0xFFF8 <(scratchpad)>
     4A7:	051A      	ld         x, @(+0x5, x)
     4A8:	F829      	st         x, @0xFFF8 <(scratchpad)>
     4A9:	F899      	tst        @0xFFF8 <(scratchpad)>
     4AA:	D6F0      	bne        -0x2A <.LECIE0:0x480[p]>
     4AB:	0114      	ld         al, #+0x1
     4AC:	010F      	leave      #+0x1

0x000004AD <ble_lm_connection_completed>:
     4AD:	010B      	enter      #+0x1
     4AE:	F825      	st         al, @0xFFF8 <(scratchpad)>
     4AF:	3600      	**prefx    0x36
     4B0:	B610      	ld         ah, #+0x35B6
     4B1:	E119      	ld         x, @0xFFE1 <register al>
     4B2:	0916      	ld         al, @(+0x9, x)
     4B3:	E019      	ld         x, @0xFFE0 <register ah>
     4B4:	0026      	st         al, @(0x0, x)
     4B5:	F819      	ld         x, @0xFFF8 <(scratchpad)>
     4B6:	0A16      	ld         al, @(+0xA, x)
     4B7:	E019      	ld         x, @0xFFE0 <register ah>
     4B8:	0126      	st         al, @(+0x1, x)
     4B9:	F819      	ld         x, @0xFFF8 <(scratchpad)>
     4BA:	0B16      	ld         al, @(+0xB, x)
     4BB:	E019      	ld         x, @0xFFE0 <register ah>
     4BC:	0226      	st         al, @(+0x2, x)
     4BD:	010F      	leave      #+0x1

0x000004BE <ble_lm_encryption_changed>:
     4BE:	00E2      	bra        0x0, x

0x000004BF <ble_ls_radio_event>:
     4BF:	00E2      	bra        0x0, x

0x000004C0 <ble_lm_connection_updated>:
     4C0:	030B      	enter      #+0x3
     4C1:	3600      	**prefx    0x36
     4C2:	9611      	ld         ah, @0x3596 <bleData>
     4C3:	0380      	cmp        ah, #+0x3
     4C4:	09F4      	beq        +0x9 <.LASFDE0+0x9:0x4CD[p]>
     4C5:	0580      	cmp        ah, #+0x5
     4C6:	07F4      	beq        +0x7 <.LASFDE0+0x9:0x4CD[p]>
     4C7:	3500      	**prefx    0x35
     4C8:	BE14      	ld         al, #+0x34BE
     4C9:	0027      	st         al, @(0x0, y)
     4CA:	0100      	**prefx    0x1
     4CB:	E314      	ld         al, #+0xE3
     4CC:	06E0      	bra        +0x6 <.LASFDE0+0xE:0x4D2[p]>
     4CD:	3500      	**prefx    0x35
     4CE:	BE14      	ld         al, #+0x34BE
     4CF:	0027      	st         al, @(0x0, y)
     4D0:	0100      	**prefx    0x1
     4D1:	E414      	ld         al, #+0xE4
     4D2:	0127      	st         al, @(+0x1, y)
     4D3:	0300      	**prefx    0x3
     4D4:	0714      	ld         al, #+0x307
     4D5:	0600      	**prefx    0x6
     4D6:	EF9C      	bsr        +0x5EF <bug_check_ex:0xAC5[p]>

0x000004D7 <ble_sm_simple_pairing_completed>:
     4D7:	030B      	enter      #+0x3
     4D8:	E119      	ld         x, @0xFFE1 <register al>
     4D9:	3600      	**prefx    0x36
     4DA:	9615      	ld         al, @0x3596 <bleData>
     4DB:	0384      	cmp        al, #+0x3
     4DC:	59F0      	bne        +0x59 <.LASFDE0+0x1:0x535[p]>
     4DD:	069A      	tst        @(+0x6, x)
     4DE:	2DF0      	bne        +0x2D <.LEFDE4+0x3:0x50B[p]>
     4DF:	0114      	ld         al, #+0x1
     4E0:	3600      	**prefx    0x36
     4E1:	A025      	st         al, @0x35A0 <bleData+0xA>
     4E2:	0514      	ld         al, #+0x5
     4E3:	3600      	**prefx    0x36
     4E4:	A110      	ld         ah, #+0x35A1
     4E5:	0138      	add        x, #+0x1
     4E6:	FD09      	bc2        
     4E7:	0114      	ld         al, #+0x1
     4E8:	0027      	st         al, @(0x0, y)
     4E9:	0214      	ld         al, #+0x2
     4EA:	3600      	**prefx    0x36
     4EB:	A010      	ld         ah, #+0x35A0
     4EC:	0600      	**prefx    0x6
     4ED:	AE9C      	bsr        +0x5AE <nvm_write:0xA9B[p]>
     4EE:	0514      	ld         al, #+0x5
     4EF:	0027      	st         al, @(0x0, y)
     4F0:	0314      	ld         al, #+0x3
     4F1:	3600      	**prefx    0x36
     4F2:	A110      	ld         ah, #+0x35A1
     4F3:	0600      	**prefx    0x6
     4F4:	A79C      	bsr        +0x5A7 <nvm_write:0xA9B[p]>
     4F5:	3600      	**prefx    0x36
     4F6:	A114      	ld         al, #+0x35A1
     4F7:	0200      	**prefx    0x2
     4F8:	109C      	bsr        +0x210 <ble_gatt_is_address_resolvable_random:0x708[p]>
     4F9:	E199      	tst        @0xFFE1 <register al>
     4FA:	3BF0      	bne        +0x3B <.LASFDE0+0x1:0x535[p]>
     4FB:	3600      	**prefx    0x36
     4FC:	A114      	ld         al, #+0x35A1
     4FD:	0100      	**prefx    0x1
     4FE:	8C00      	**prefx    0x8C
     4FF:	799C      	bsr        +0x8C79 <LsAddWhiteListDevice:0x9178[p]>
     500:	E111      	ld         ah, @0xFFE1 <register al>
     501:	34F4      	beq        +0x34 <.LASFDE0+0x1:0x535[p]>
     502:	3500      	**prefx    0x35
     503:	BE14      	ld         al, #+0x34BE
     504:	0027      	st         al, @(0x0, y)
     505:	0200      	**prefx    0x2
     506:	1714      	ld         al, #+0x217
     507:	0127      	st         al, @(+0x1, y)
     508:	0300      	**prefx    0x3
     509:	0414      	ld         al, #+0x304
     50A:	1FE0      	bra        +0x1F <.LSCIE0+0x5:0x529[p]>
     50B:	3600      	**prefx    0x36
     50C:	A099      	tst        @0x35A0 <bleData+0xA>
     50D:	21F4      	beq        +0x21 <.LSCIE0+0xA:0x52E[p]>
     50E:	0514      	ld         al, #+0x5
     50F:	0027      	st         al, @(0x0, y)
     510:	3600      	**prefx    0x36
     511:	A114      	ld         al, #+0x35A1
     512:	3600      	**prefx    0x36
     513:	9A10      	ld         ah, #+0x359A
     514:	0100      	**prefx    0x1
     515:	AE00      	**prefx    0xAE
     516:	909C      	bsr        +0xAD90 <MemCmp:0xB2A6[p]>
     517:	E199      	tst        @0xFFE1 <register al>
     518:	16F0      	bne        +0x16 <.LSCIE0+0xA:0x52E[p]>
     519:	3600      	**prefx    0x36
     51A:	A114      	ld         al, #+0x35A1
     51B:	0100      	**prefx    0x1
     51C:	8C00      	**prefx    0x8C
     51D:	529C      	bsr        +0x8C52 <LsDeleteWhiteListDevice:0x916F[p]>
     51E:	E199      	tst        @0xFFE1 <register al>
     51F:	0CF4      	beq        +0xC <.LSCIE0+0x7:0x52B[p]>
     520:	3500      	**prefx    0x35
     521:	BE14      	ld         al, #+0x34BE
     522:	0027      	st         al, @(0x0, y)
     523:	0200      	**prefx    0x2
     524:	2314      	ld         al, #+0x223
     525:	0127      	st         al, @(+0x1, y)
     526:	0300      	**prefx    0x3
     527:	0514      	ld         al, #+0x305
     528:	0110      	ld         ah, #+0x1
     529:	0600      	**prefx    0x6
     52A:	9B9C      	bsr        +0x59B <bug_check_ex:0xAC5[p]>
     52B:	0014      	ld         al, #+0x0
     52C:	3600      	**prefx    0x36
     52D:	A025      	st         al, @0x35A0 <bleData+0xA>
     52E:	0114      	ld         al, #+0x1
     52F:	0027      	st         al, @(0x0, y)
     530:	0214      	ld         al, #+0x2
     531:	3600      	**prefx    0x36
     532:	A010      	ld         ah, #+0x35A0
     533:	0500      	**prefx    0x5
     534:	679C      	bsr        +0x567 <nvm_write:0xA9B[p]>
     535:	030F      	leave      #+0x3

0x00000536 <ble_sm_keys_indication>:
     536:	040B      	enter      #+0x4
     537:	0227      	st         al, @(+0x2, y)
     538:	3600      	**prefx    0x36
     539:	9611      	ld         ah, @0x3596 <bleData>
     53A:	0380      	cmp        ah, #+0x3
     53B:	0BF4      	beq        +0xB <ble_sm_keys_indication+0x10:0x546[p]>
     53C:	3500      	**prefx    0x35
     53D:	BE14      	ld         al, #+0x34BE
     53E:	0027      	st         al, @(0x0, y)
     53F:	0200      	**prefx    0x2
     540:	E718      	ld         x, #+0x1E7
     541:	012B      	st         x, @(+0x1, y)
     542:	0300      	**prefx    0x3
     543:	0714      	ld         al, #+0x307
     544:	0600      	**prefx    0x6
     545:	809C      	bsr        +0x580 <bug_check_ex:0xAC5[p]>
     546:	021B      	ld         x, @(+0x2, y)
     547:	0616      	ld         al, @(+0x6, x)
     548:	E119      	ld         x, @0xFFE1 <register al>
     549:	0216      	ld         al, @(+0x2, x)
     54A:	3600      	**prefx    0x36
     54B:	A925      	st         al, @0x35A9 <bleData+0x13>
     54C:	0114      	ld         al, #+0x1
     54D:	0027      	st         al, @(0x0, y)
     54E:	0814      	ld         al, #+0x8
     54F:	3600      	**prefx    0x36
     550:	A910      	ld         ah, #+0x35A9
     551:	0500      	**prefx    0x5
     552:	499C      	bsr        +0x549 <nvm_write:0xA9B[p]>
     553:	3600      	**prefx    0x36
     554:	9A14      	ld         al, #+0x359A
     555:	0200      	**prefx    0x2
     556:	B29C      	bsr        +0x1B2 <ble_gatt_is_address_resolvable_random:0x708[p]>
     557:	E199      	tst        @0xFFE1 <register al>
     558:	12F4      	beq        +0x12 <.LEFDE0+0x22:0x56A[p]>
     559:	021B      	ld         x, @(+0x2, y)
     55A:	061A      	ld         x, @(+0x6, x)
     55B:	E315      	ld         al, @0xFFE3 <register uxl>
     55C:	1034      	add        al, #+0x10
     55D:	F825      	st         al, @0xFFF8 <(scratchpad)>
     55E:	0814      	ld         al, #+0x8
     55F:	3600      	**prefx    0x36
     560:	AB10      	ld         ah, #+0x35AB
     561:	F819      	ld         x, @0xFFF8 <(scratchpad)>
     562:	FD09      	bc2        
     563:	0818      	ld         x, #+0x8
     564:	002B      	st         x, @(0x0, y)
     565:	0914      	ld         al, #+0x9
     566:	3600      	**prefx    0x36
     567:	AB10      	ld         ah, #+0x35AB
     568:	0500      	**prefx    0x5
     569:	329C      	bsr        +0x532 <nvm_write:0xA9B[p]>
     56A:	040F      	leave      #+0x4

0x0000056B <ble_sm_diversifier_approval_indication>:
     56B:	040B      	enter      #+0x4
     56C:	0227      	st         al, @(+0x2, y)
     56D:	3600      	**prefx    0x36
     56E:	9611      	ld         ah, @0x3596 <bleData>
     56F:	0380      	cmp        ah, #+0x3
     570:	0BF4      	beq        +0xB <ble_sm_diversifier_approval_indication+0x10:0x57B[p]>
     571:	3500      	**prefx    0x35
     572:	BE14      	ld         al, #+0x34BE
     573:	0027      	st         al, @(0x0, y)
     574:	0200      	**prefx    0x2
     575:	D618      	ld         x, #+0x1D6
     576:	012B      	st         x, @(+0x1, y)
     577:	0300      	**prefx    0x3
     578:	0714      	ld         al, #+0x307
     579:	0500      	**prefx    0x5
     57A:	4B9C      	bsr        +0x54B <bug_check_ex:0xAC5[p]>
     57B:	3600      	**prefx    0x36
     57C:	A099      	tst        @0x35A0 <bleData+0xA>
     57D:	13F4      	beq        +0x13 <ble_sm_diversifier_approval_indication+0x25:0x590[p]>
     57E:	0514      	ld         al, #+0x5
     57F:	0027      	st         al, @(0x0, y)
     580:	3600      	**prefx    0x36
     581:	A114      	ld         al, #+0x35A1
     582:	3600      	**prefx    0x36
     583:	9A10      	ld         ah, #+0x359A
     584:	0100      	**prefx    0x1
     585:	AD00      	**prefx    0xAD
     586:	209C      	bsr        +0xAD20 <MemCmp:0xB2A6[p]>
     587:	E199      	tst        @0xFFE1 <register al>
     588:	08F0      	bne        +0x8 <ble_sm_diversifier_approval_indication+0x25:0x590[p]>
     589:	3600      	**prefx    0x36
     58A:	A915      	ld         al, @0x35A9 <bleData+0x13>
     58B:	021B      	ld         x, @(+0x2, y)
     58C:	0286      	cmp        al, @(+0x2, x)
     58D:	03F0      	bne        +0x3 <ble_sm_diversifier_approval_indication+0x25:0x590[p]>
     58E:	0010      	ld         ah, #+0x0
     58F:	02E0      	bra        +0x2 <ble_sm_diversifier_approval_indication+0x26:0x591[p]>
     590:	0110      	ld         ah, #+0x1
     591:	021B      	ld         x, @(+0x2, y)
     592:	0116      	ld         al, @(+0x1, x)
     593:	FC00      	**prefx    0xFC
     594:	119C      	bsr        -0x3EF <SMDivApproval:0x1A5[p]>
     595:	040F      	leave      #+0x4

0x00000596 <ble_ls_conn_param_update_completed>:
     596:	030B      	enter      #+0x3
     597:	E119      	ld         x, @0xFFE1 <register al>
     598:	3600      	**prefx    0x36
     599:	9611      	ld         ah, @0x3596 <bleData>
     59A:	0380      	cmp        ah, #+0x3
     59B:	0BF4      	beq        +0xB <ble_ls_conn_param_update_completed+0x10:0x5A6[p]>
     59C:	3500      	**prefx    0x35
     59D:	BE14      	ld         al, #+0x34BE
     59E:	0027      	st         al, @(0x0, y)
     59F:	0200      	**prefx    0x2
     5A0:	C114      	ld         al, #+0x1C1
     5A1:	0127      	st         al, @(+0x1, y)
     5A2:	0300      	**prefx    0x3
     5A3:	0714      	ld         al, #+0x307
     5A4:	0500      	**prefx    0x5
     5A5:	209C      	bsr        +0x520 <bug_check_ex:0xAC5[p]>
     5A6:	019A      	tst        @(+0x1, x)
     5A7:	18F4      	beq        +0x18 <L0+0xF:0x5BF[p]>
     5A8:	3600      	**prefx    0x36
     5A9:	A715      	ld         al, @0x35A7 <bleData+0x11>
     5AA:	0284      	cmp        al, #+0x2
     5AB:	14F8      	bcc        +0x14 <L0+0xF:0x5BF[p]>
     5AC:	3600      	**prefx    0x36
     5AD:	A815      	ld         al, @0x35A8 <bleData+0x12>
     5AE:	0100      	**prefx    0x1
     5AF:	DB00      	**prefx    0xDB
     5B0:	8F9C      	bsr        +0xDA8F <TimerDelete:0xE03F[p]>
     5B1:	0114      	ld         al, #+0x1
     5B2:	0027      	st         al, @(0x0, y)
     5B3:	0600      	**prefx    0x6
     5B4:	EE14      	ld         al, #+0x5EE
     5B5:	0127      	st         al, @(+0x1, y)
     5B6:	0200      	**prefx    0x2
     5B7:	C910      	ld         ah, #+0x1C9
     5B8:	C400      	**prefx    0xC4
     5B9:	8014      	ld         al, #-0x3C80
     5BA:	0100      	**prefx    0x1
     5BB:	DB00      	**prefx    0xDB
     5BC:	3F9C      	bsr        +0xDB3F <TimerCreate:0xE0FB[p]>
     5BD:	3600      	**prefx    0x36
     5BE:	A825      	st         al, @0x35A8 <bleData+0x12>
     5BF:	030F      	leave      #+0x3

0x000005C0 <ble_ls_conn_param_update_indication>:
     5C0:	030B      	enter      #+0x3
     5C1:	3600      	**prefx    0x36
     5C2:	9611      	ld         ah, @0x3596 <bleData>
     5C3:	0380      	cmp        ah, #+0x3
     5C4:	0BF4      	beq        +0xB <ble_ls_conn_param_update_indication+0xF:0x5CF[p]>
     5C5:	3500      	**prefx    0x35
     5C6:	BE14      	ld         al, #+0x34BE
     5C7:	0027      	st         al, @(0x0, y)
     5C8:	0200      	**prefx    0x2
     5C9:	A114      	ld         al, #+0x1A1
     5CA:	0127      	st         al, @(+0x1, y)
     5CB:	0300      	**prefx    0x3
     5CC:	0714      	ld         al, #+0x307
     5CD:	0500      	**prefx    0x5
     5CE:	F79C      	bsr        +0x4F7 <bug_check_ex:0xAC5[p]>
     5CF:	3600      	**prefx    0x36
     5D0:	A815      	ld         al, @0x35A8 <bleData+0x12>
     5D1:	0100      	**prefx    0x1
     5D2:	DA00      	**prefx    0xDA
     5D3:	6C9C      	bsr        +0xDA6C <TimerDelete:0xE03F[p]>
     5D4:	0014      	ld         al, #+0x0
     5D5:	3600      	**prefx    0x36
     5D6:	A825      	st         al, @0x35A8 <bleData+0x12>
     5D7:	3600      	**prefx    0x36
     5D8:	B615      	ld         al, @0x35B6 <bleData+0x20>
     5D9:	0300      	**prefx    0x3
     5DA:	2084      	cmp        al, #+0x320
     5DB:	12F4      	beq        +0x12 <ble_ls_conn_param_update_indication+0x2D:0x5ED[p]>
     5DC:	0014      	ld         al, #+0x0
     5DD:	3600      	**prefx    0x36
     5DE:	A725      	st         al, @0x35A7 <bleData+0x11>
     5DF:	0114      	ld         al, #+0x1
     5E0:	0027      	st         al, @(0x0, y)
     5E1:	0600      	**prefx    0x6
     5E2:	EE14      	ld         al, #+0x5EE
     5E3:	0127      	st         al, @(+0x1, y)
     5E4:	0200      	**prefx    0x2
     5E5:	C910      	ld         ah, #+0x1C9
     5E6:	C400      	**prefx    0xC4
     5E7:	8014      	ld         al, #-0x3C80
     5E8:	0100      	**prefx    0x1
     5E9:	DB00      	**prefx    0xDB
     5EA:	119C      	bsr        +0xDB11 <TimerCreate:0xE0FB[p]>
     5EB:	3600      	**prefx    0x36
     5EC:	A825      	st         al, @0x35A8 <bleData+0x12>
     5ED:	030F      	leave      #+0x3

0x000005EE <ble_request_conn_param_update>:
     5EE:	070B      	enter      #+0x7
     5EF:	3500      	**prefx    0x35
     5F0:	DB19      	ld         x, @0x34DB <C.5..3145.>
     5F1:	022B      	st         x, @(+0x2, y)
     5F2:	3500      	**prefx    0x35
     5F3:	DC19      	ld         x, @0x34DC <C.5..3145.+0x1>
     5F4:	032B      	st         x, @(+0x3, y)
     5F5:	3500      	**prefx    0x35
     5F6:	DD19      	ld         x, @0x34DD <C.5..3145.+0x2>
     5F7:	042B      	st         x, @(+0x4, y)
     5F8:	3500      	**prefx    0x35
     5F9:	DE19      	ld         x, @0x34DE <C.5..3145.+0x3>
     5FA:	052B      	st         x, @(+0x5, y)
     5FB:	3600      	**prefx    0x36
     5FC:	A811      	ld         ah, @0x35A8 <bleData+0x12>
     5FD:	E181      	cmp        ah, @0xFFE1 <register al>
     5FE:	20F0      	bne        +0x20 <ble_request_conn_param_update+0x30:0x61E[p]>
     5FF:	0014      	ld         al, #+0x0
     600:	3600      	**prefx    0x36
     601:	A825      	st         al, @0x35A8 <bleData+0x12>
     602:	3600      	**prefx    0x36
     603:	9615      	ld         al, @0x3596 <bleData>
     604:	0384      	cmp        al, #+0x3
     605:	19F0      	bne        +0x19 <ble_request_conn_param_update+0x30:0x61E[p]>
     606:	3600      	**prefx    0x36
     607:	9A14      	ld         al, #+0x359A
     608:	E411      	ld         ah, @0xFFE4 <register uy>
     609:	0230      	add        ah, #+0x2
     60A:	0100      	**prefx    0x1
     60B:	8B00      	**prefx    0x8B
     60C:	D89C      	bsr        +0x8AD8 <LsConnectionParamUpdateReq:0x90E4[p]>
     60D:	E111      	ld         ah, @0xFFE1 <register al>
     60E:	0BF4      	beq        +0xB <ble_request_conn_param_update+0x2B:0x619[p]>
     60F:	3500      	**prefx    0x35
     610:	BE18      	ld         x, #+0x34BE
     611:	002B      	st         x, @(0x0, y)
     612:	0100      	**prefx    0x1
     613:	BA14      	ld         al, #+0xBA
     614:	0127      	st         al, @(+0x1, y)
     615:	0300      	**prefx    0x3
     616:	0614      	ld         al, #+0x306
     617:	0500      	**prefx    0x5
     618:	AD9C      	bsr        +0x4AD <bug_check_ex:0xAC5[p]>
     619:	3600      	**prefx    0x36
     61A:	A715      	ld         al, @0x35A7 <bleData+0x11>
     61B:	0134      	add        al, #+0x1
     61C:	3600      	**prefx    0x36
     61D:	A725      	st         al, @0x35A7 <bleData+0x11>
     61E:	070F      	leave      #+0x7

0x0000061F <ble_data_init>:
     61F:	020B      	enter      #+0x2
     620:	0014      	ld         al, #+0x0
     621:	3600      	**prefx    0x36
     622:	9618      	ld         x, #+0x3596
     623:	0026      	st         al, @(0x0, x)
     624:	FF18      	ld         x, #-0x1
     625:	3600      	**prefx    0x36
     626:	9F29      	st         x, @0x359F <bleData+0x9>
     627:	3600      	**prefx    0x36
     628:	9915      	ld         al, @0x3599 <bleData+0x3>
     629:	0100      	**prefx    0x1
     62A:	DA00      	**prefx    0xDA
     62B:	149C      	bsr        +0xDA14 <TimerDelete:0xE03F[p]>
     62C:	0014      	ld         al, #+0x0
     62D:	3600      	**prefx    0x36
     62E:	9925      	st         al, @0x3599 <bleData+0x3>
     62F:	3600      	**prefx    0x36
     630:	A815      	ld         al, @0x35A8 <bleData+0x12>
     631:	0100      	**prefx    0x1
     632:	DA00      	**prefx    0xDA
     633:	0C9C      	bsr        +0xDA0C <TimerDelete:0xE03F[p]>
     634:	0018      	ld         x, #+0x0
     635:	3600      	**prefx    0x36
     636:	A829      	st         x, @0x35A8 <bleData+0x12>
     637:	3600      	**prefx    0x36
     638:	B515      	ld         al, @0x35B5 <bleData+0x1F>
     639:	0100      	**prefx    0x1
     63A:	DA00      	**prefx    0xDA
     63B:	049C      	bsr        +0xDA04 <TimerDelete:0xE03F[p]>
     63C:	0014      	ld         al, #+0x0
     63D:	3600      	**prefx    0x36
     63E:	B525      	st         al, @0x35B5 <bleData+0x1F>
     63F:	3600      	**prefx    0x36
     640:	9725      	st         al, @0x3597 <bleData+0x1>
     641:	3600      	**prefx    0x36
     642:	9825      	st         al, @0x3598 <bleData+0x2>
     643:	3600      	**prefx    0x36
     644:	A625      	st         al, @0x35A6 <bleData+0x10>
     645:	3600      	**prefx    0x36
     646:	B425      	st         al, @0x35B4 <bleData+0x1E>
     647:	3600      	**prefx    0x36
     648:	B625      	st         al, @0x35B6 <bleData+0x20>
     649:	3600      	**prefx    0x36
     64A:	B725      	st         al, @0x35B7 <bleData+0x21>
     64B:	3600      	**prefx    0x36
     64C:	B825      	st         al, @0x35B8 <bleData+0x22>
     64D:	3600      	**prefx    0x36
     64E:	9610      	ld         ah, #+0x3596
     64F:	1330      	add        ah, #+0x13
     650:	0118      	ld         x, #+0x1
     651:	002B      	st         x, @(0x0, y)
     652:	0814      	ld         al, #+0x8
     653:	0400      	**prefx    0x4
     654:	5C9C      	bsr        +0x45C <nvm_read:0xAB0[p]>
     655:	3600      	**prefx    0x36
     656:	A915      	ld         al, @0x35A9 <bleData+0x13>
     657:	0100      	**prefx    0x1
     658:	8100      	**prefx    0x81
     659:	0B9C      	bsr        +0x810B <SMInit:0x8764[p]>
     65A:	020F      	leave      #+0x2

0x0000065B <ble_change_state>:
     65B:	050B      	enter      #+0x5
     65C:	0327      	st         al, @(+0x3, y)
     65D:	3600      	**prefx    0x36
     65E:	9615      	ld         al, @0x3596 <bleData>
     65F:	0227      	st         al, @(+0x2, y)
     660:	0387      	cmp        al, @(+0x3, y)
     661:	49F4      	beq        +0x49 <___libgatt_lib_db_4189+0x31:0x6AA[p]>
     662:	0384      	cmp        al, #+0x3
     663:	04F8      	bcc        +0x4 <ble_change_state+0xC:0x667[p]>
     664:	0184      	cmp        al, #+0x1
     665:	21F8      	bcc        +0x21 <___libgatt_lib_db_4189+0xD:0x686[p]>
     666:	05E0      	bra        +0x5 <ble_change_state+0x10:0x66B[p]>
     667:	0217      	ld         al, @(+0x2, y)
     668:	0584      	cmp        al, #+0x5
     669:	25F0      	bne        +0x25 <___libgatt_lib_db_4189+0x15:0x68E[p]>
     66A:	1AE0      	bra        +0x1A <___libgatt_lib_db_4189+0xB:0x684[p]>
     66B:	3600      	**prefx    0x36
     66C:	A099      	tst        @0x35A0 <bleData+0xA>
     66D:	21F4      	beq        +0x21 <___libgatt_lib_db_4189+0x15:0x68E[p]>
     66E:	3600      	**prefx    0x36
     66F:	A114      	ld         al, #+0x35A1
     670:	0100      	**prefx    0x1
     671:	979C      	bsr        +0x97 <ble_gatt_is_address_resolvable_random:0x708[p]>
     672:	E199      	tst        @0xFFE1 <register al>
     673:	1BF0      	bne        +0x1B <___libgatt_lib_db_4189+0x15:0x68E[p]>
     674:	3600      	**prefx    0x36
     675:	A114      	ld         al, #+0x35A1
     676:	0100      	**prefx    0x1
     677:	8B00      	**prefx    0x8B
     678:	009C      	bsr        +0x8B00 <LsAddWhiteListDevice:0x9178[p]>
     679:	E111      	ld         ah, @0xFFE1 <register al>
     67A:	14F4      	beq        +0x14 <___libgatt_lib_db_4189+0x15:0x68E[p]>
     67B:	3500      	**prefx    0x35
     67C:	BE14      	ld         al, #+0x34BE
     67D:	0027      	st         al, @(0x0, y)
     67E:	7814      	ld         al, #+0x78
     67F:	0127      	st         al, @(+0x1, y)
     680:	0300      	**prefx    0x3
     681:	0414      	ld         al, #+0x304
     682:	0400      	**prefx    0x4
     683:	429C      	bsr        +0x442 <bug_check_ex:0xAC5[p]>
     684:	9B9C      	bsr        -0x65 <ble_data_init:0x61F[p]>
     685:	09E0      	bra        +0x9 <___libgatt_lib_db_4189+0x15:0x68E[p]>
     686:	3600      	**prefx    0x36
     687:	9915      	ld         al, @0x3599 <bleData+0x3>
     688:	0100      	**prefx    0x1
     689:	DA00      	**prefx    0xDA
     68A:	B59C      	bsr        +0xD9B5 <TimerDelete:0xE03F[p]>
     68B:	0014      	ld         al, #+0x0
     68C:	3600      	**prefx    0x36
     68D:	9925      	st         al, @0x3599 <bleData+0x3>
     68E:	3600      	**prefx    0x36
     68F:	9519      	ld         x, @0x3595 <ble_state_transition>
     690:	05F4      	beq        +0x5 <___libgatt_lib_db_4189+0x1C:0x695[p]>
     691:	0217      	ld         al, @(+0x2, y)
     692:	0313      	ld         ah, @(+0x3, y)
     693:	FF2B      	st         x, @(-0x1, y)
     694:	FF9F      	bsr        @(-0x1, y)
     695:	0317      	ld         al, @(+0x3, y)
     696:	3600      	**prefx    0x36
     697:	9625      	st         al, @0x3596 <bleData>
     698:	0284      	cmp        al, #+0x2
     699:	08F4      	beq        +0x8 <___libgatt_lib_db_4189+0x28:0x6A1[p]>
     69A:	0584      	cmp        al, #+0x5
     69B:	0AF4      	beq        +0xA <___libgatt_lib_db_4189+0x2C:0x6A5[p]>
     69C:	0184      	cmp        al, #+0x1
     69D:	0DF0      	bne        +0xD <___libgatt_lib_db_4189+0x31:0x6AA[p]>
     69E:	0300      	**prefx    0x3
     69F:	0D9C      	bsr        +0x30D <ble_trigger_fast_ads:0x9AC[p]>
     6A0:	0AE0      	bra        +0xA <___libgatt_lib_db_4189+0x31:0x6AA[p]>
     6A1:	0014      	ld         al, #+0x0
     6A2:	0300      	**prefx    0x3
     6A3:	D49C      	bsr        +0x2D4 <ble_start_ads:0x977[p]>
     6A4:	06E0      	bra        +0x6 <___libgatt_lib_db_4189+0x31:0x6AA[p]>
     6A5:	3600      	**prefx    0x36
     6A6:	9F15      	ld         al, @0x359F <bleData+0x9>
     6A7:	0100      	**prefx    0x1
     6A8:	A900      	**prefx    0xA9
     6A9:	B19C      	bsr        +0xA8B1 <GattDisconnectReq:0xAF5A[p]>
     6AA:	050F      	leave      #+0x5

0x000006AB <ble_lm_connection_closed>:
     6AB:	040B      	enter      #+0x4
     6AC:	0227      	st         al, @(+0x2, y)
     6AD:	0014      	ld         al, #+0x0
     6AE:	3600      	**prefx    0x36
     6AF:	B625      	st         al, @0x35B6 <bleData+0x20>
     6B0:	3600      	**prefx    0x36
     6B1:	B725      	st         al, @0x35B7 <bleData+0x21>
     6B2:	3600      	**prefx    0x36
     6B3:	B825      	st         al, @0x35B8 <bleData+0x22>
     6B4:	3600      	**prefx    0x36
     6B5:	9F15      	ld         al, @0x359F <bleData+0x9>
     6B6:	0010      	ld         ah, #+0x0
     6B7:	0400      	**prefx    0x4
     6B8:	579C      	bsr        +0x457 <LsRadioEventNotification:0xB0F[p]>
     6B9:	3600      	**prefx    0x36
     6BA:	9611      	ld         ah, @0x3596 <bleData>
     6BB:	0380      	cmp        ah, #+0x3
     6BC:	04F0      	bne        +0x4 <ble_lm_connection_closed+0x15:0x6C0[p]>
     6BD:	FF00      	**prefx    0xFF
     6BE:	619C      	bsr        -0x9F <ble_data_init:0x61F[p]>
     6BF:	0DE0      	bra        +0xD <ble_lm_connection_closed+0x21:0x6CC[p]>
     6C0:	0580      	cmp        ah, #+0x5
     6C1:	0BF4      	beq        +0xB <ble_lm_connection_closed+0x21:0x6CC[p]>
     6C2:	3500      	**prefx    0x35
     6C3:	BE18      	ld         x, #+0x34BE
     6C4:	002B      	st         x, @(0x0, y)
     6C5:	0100      	**prefx    0x1
     6C6:	1714      	ld         al, #+0x117
     6C7:	0127      	st         al, @(+0x1, y)
     6C8:	0300      	**prefx    0x3
     6C9:	0714      	ld         al, #+0x307
     6CA:	0400      	**prefx    0x4
     6CB:	FA9C      	bsr        +0x3FA <bug_check_ex:0xAC5[p]>
     6CC:	021B      	ld         x, @(+0x2, y)
     6CD:	0216      	ld         al, @(+0x2, x)
     6CE:	0884      	cmp        al, #+0x8
     6CF:	27F4      	beq        +0x27 <ble_lm_connection_closed+0x4B:0x6F6[p]>
     6D0:	1684      	cmp        al, #+0x16
     6D1:	20F0      	bne        +0x20 <ble_lm_connection_closed+0x46:0x6F1[p]>
     6D2:	3600      	**prefx    0x36
     6D3:	9615      	ld         al, @0x3596 <bleData>
     6D4:	0384      	cmp        al, #+0x3
     6D5:	21F4      	beq        +0x21 <ble_lm_connection_closed+0x4B:0x6F6[p]>
     6D6:	3600      	**prefx    0x36
     6D7:	A099      	tst        @0x35A0 <bleData+0xA>
     6D8:	1EF4      	beq        +0x1E <ble_lm_connection_closed+0x4B:0x6F6[p]>
     6D9:	3600      	**prefx    0x36
     6DA:	A114      	ld         al, #+0x35A1
     6DB:	2D9C      	bsr        +0x2D <ble_gatt_is_address_resolvable_random:0x708[p]>
     6DC:	E199      	tst        @0xFFE1 <register al>
     6DD:	10F4      	beq        +0x10 <ble_lm_connection_closed+0x42:0x6ED[p]>
     6DE:	0114      	ld         al, #+0x1
     6DF:	0027      	st         al, @(0x0, y)
     6E0:	0818      	ld         x, #+0x8
     6E1:	012B      	st         x, @(+0x1, y)
     6E2:	3600      	**prefx    0x36
     6E3:	9A14      	ld         al, #+0x359A
     6E4:	3600      	**prefx    0x36
     6E5:	AB10      	ld         ah, #+0x35AB
     6E6:	0100      	**prefx    0x1
     6E7:	8500      	**prefx    0x85
     6E8:	5D9C      	bsr        +0x855D <SMPrivacyMatchAddress:0x8C45[p]>
     6E9:	E199      	tst        @0xFFE1 <register al>
     6EA:	03E8      	bpl        +0x3 <ble_lm_connection_closed+0x42:0x6ED[p]>
     6EB:	0114      	ld         al, #+0x1
     6EC:	02E0      	bra        +0x2 <ble_lm_connection_closed+0x43:0x6EE[p]>
     6ED:	0014      	ld         al, #+0x0
     6EE:	E199      	tst        @0xFFE1 <register al>
     6EF:	05F4      	beq        +0x5 <ble_lm_connection_closed+0x49:0x6F4[p]>
     6F0:	06E0      	bra        +0x6 <ble_lm_connection_closed+0x4B:0x6F6[p]>
     6F1:	3600      	**prefx    0x36
     6F2:	A099      	tst        @0x35A0 <bleData+0xA>
     6F3:	03F4      	beq        +0x3 <ble_lm_connection_closed+0x4B:0x6F6[p]>
     6F4:	0614      	ld         al, #+0x6
     6F5:	02E0      	bra        +0x2 <ble_lm_connection_closed+0x4C:0x6F7[p]>
     6F6:	0114      	ld         al, #+0x1
     6F7:	FF00      	**prefx    0xFF
     6F8:	639C      	bsr        -0x9D <ble_change_state:0x65B[p]>
     6F9:	040F      	leave      #+0x4

0x000006FA <csr1010_init>:
     6FA:	010B      	enter      #+0x1
     6FB:	0400      	**prefx    0x4
     6FC:	339C      	bsr        +0x433 <GattInit:0xB2F[p]>
     6FD:	0100      	**prefx    0x1
     6FE:	AA00      	**prefx    0xAA
     6FF:	3D9C      	bsr        +0xAA3D <GattInstallServerWriteLongReliable:0xB13C[p]>
     700:	0100      	**prefx    0x1
     701:	AA00      	**prefx    0xAA
     702:	0B9C      	bsr        +0xAA0B <GattInstallServerExchangeMtu:0xB10D[p]>
     703:	0400      	**prefx    0x4
     704:	929C      	bsr        +0x392 <nvm_init:0xA96[p]>
     705:	0300      	**prefx    0x3
     706:	D79C      	bsr        +0x2D7 <builtin_i2c_init:0x9DD[p]>
     707:	010F      	leave      #+0x1

0x00000708 <ble_gatt_is_address_resolvable_random>:
     708:	010B      	enter      #+0x1
     709:	E119      	ld         x, @0xFFE1 <register al>
     70A:	0016      	ld         al, @(0x0, x)
     70B:	0184      	cmp        al, #+0x1
     70C:	03F4      	beq        +0x3 <ble_gatt_is_address_resolvable_random+0x7:0x70F[p]>
     70D:	0010      	ld         ah, #+0x0
     70E:	09E0      	bra        +0x9 <ble_gatt_is_address_resolvable_random+0xF:0x717[p]>
     70F:	0010      	ld         ah, #+0x0
     710:	0416      	ld         al, @(+0x4, x)
     711:	C000      	**prefx    0xC0
     712:	00C4      	and        al, #0xC000
     713:	4000      	**prefx    0x40
     714:	0084      	cmp        al, #+0x4000
     715:	02F0      	bne        +0x2 <ble_gatt_is_address_resolvable_random+0xF:0x717[p]>
     716:	0110      	ld         ah, #+0x1
     717:	E015      	ld         al, @0xFFE0 <register ah>
     718:	010F      	leave      #+0x1

0x00000719 <ble_get_name_and_length>:
     719:	010B      	enter      #+0x1
     71A:	E119      	ld         x, @0xFFE1 <register al>
     71B:	0C14      	ld         al, #+0xC
     71C:	0026      	st         al, @(0x0, x)
     71D:	3700      	**prefx    0x37
     71E:	D114      	ld         al, #+0x36D1
     71F:	010F      	leave      #+0x1

0x00000720 <ble_gatt_access_indication>:
     720:	0B0B      	enter      #+0xB
     721:	0927      	st         al, @(+0x9, y)
     722:	072F      	st         y, @(+0x7, y)
     723:	3600      	**prefx    0x36
     724:	9611      	ld         ah, @0x3596 <bleData>
     725:	0380      	cmp        ah, #+0x3
     726:	0AF4      	beq        +0xA <ble_gatt_access_indication+0x10:0x730[p]>
     727:	3500      	**prefx    0x35
     728:	DF14      	ld         al, #+0x34DF
     729:	0027      	st         al, @(0x0, y)
     72A:	0200      	**prefx    0x2
     72B:	B218      	ld         x, #+0x1B2
     72C:	012B      	st         x, @(+0x1, y)
     72D:	0300      	**prefx    0x3
     72E:	0714      	ld         al, #+0x307
     72F:	22E0      	bra        +0x22 <ble_gatt_access_indication+0x31:0x751[p]>
     730:	091B      	ld         x, @(+0x9, y)
     731:	0216      	ld         al, @(+0x2, x)
     732:	E419      	ld         x, @0xFFE4 <register uy>
     733:	0438      	add        x, #+0x4
     734:	002B      	st         x, @(0x0, y)
     735:	E411      	ld         ah, @0xFFE4 <register uy>
     736:	0330      	add        ah, #+0x3
     737:	FD00      	**prefx    0xFD
     738:	419C      	bsr        -0x2BF <ble_get_attribute:0x479[p]>
     739:	E199      	tst        @0xFFE1 <register al>
     73A:	07F4      	beq        +0x7 <ble_gatt_access_indication+0x21:0x741[p]>
     73B:	091B      	ld         x, @(+0x9, y)
     73C:	0116      	ld         al, @(+0x1, x)
     73D:	0212      	ld         ah, @(+0x2, x)
     73E:	0A00      	**prefx    0xA
     73F:	0A18      	ld         x, #+0xA0A
     740:	4CE0      	bra        +0x4C <L0+0x26:0x78C[p]>
     741:	031B      	ld         x, @(+0x3, y)
     742:	001A      	ld         x, @(0x0, x)
     743:	062B      	st         x, @(+0x6, y)
     744:	091B      	ld         x, @(+0x9, y)
     745:	0516      	ld         al, @(+0x5, x)
     746:	0527      	st         al, @(+0x5, y)
     747:	6484      	cmp        al, #+0x64
     748:	0B2C      	bcz        +0xB <ble_gatt_access_indication+0x33:0x753[p]>
     749:	3500      	**prefx    0x35
     74A:	DF14      	ld         al, #+0x34DF
     74B:	0027      	st         al, @(0x0, y)
     74C:	0200      	**prefx    0x2
     74D:	BE18      	ld         x, #+0x1BE
     74E:	012B      	st         x, @(+0x1, y)
     74F:	0214      	ld         al, #+0x2
     750:	0010      	ld         ah, #+0x0
     751:	0300      	**prefx    0x3
     752:	739C      	bsr        +0x373 <bug_check_ex:0xAC5[p]>
     753:	E15D      	sub        y, @0xFFE1 <register al>
     754:	E415      	ld         al, @0xFFE4 <register uy>
     755:	0334      	add        al, #+0x3
     756:	0827      	st         al, @(+0x8, y)
     757:	091B      	ld         x, @(+0x9, y)
     758:	0316      	ld         al, @(+0x3, x)
     759:	02C4      	and        al, #0x2
     75A:	11F4      	beq        +0x11 <L0+0x5:0x76B[p]>
     75B:	041B      	ld         x, @(+0x4, y)
     75C:	021A      	ld         x, @(+0x2, x)
     75D:	F829      	st         x, @0xFFF8 <(scratchpad)>
     75E:	15F4      	beq        +0x15 <L0+0xD:0x773[p]>
     75F:	091B      	ld         x, @(+0x9, y)
     760:	0412      	ld         ah, @(+0x4, x)
     761:	0616      	ld         al, @(+0x6, x)
     762:	0027      	st         al, @(0x0, y)
     763:	051A      	ld         x, @(+0x5, x)
     764:	012B      	st         x, @(+0x1, y)
     765:	0617      	ld         al, @(+0x6, y)
     766:	F819      	ld         x, @0xFFF8 <(scratchpad)>
     767:	FF2B      	st         x, @(-0x1, y)
     768:	FF9F      	bsr        @(-0x1, y)
     769:	F825      	st         al, @0xFFF8 <(scratchpad)>
     76A:	1CF0      	bne        +0x1C <L0+0x20:0x786[p]>
     76B:	091B      	ld         x, @(+0x9, y)
     76C:	0316      	ld         al, @(+0x3, x)
     76D:	01C4      	and        al, #0x1
     76E:	26F4      	beq        +0x26 <L0+0x2E:0x794[p]>
     76F:	041B      	ld         x, @(+0x4, y)
     770:	011A      	ld         x, @(+0x1, x)
     771:	F829      	st         x, @0xFFF8 <(scratchpad)>
     772:	07F0      	bne        +0x7 <L0+0x13:0x779[p]>
     773:	091B      	ld         x, @(+0x9, y)
     774:	0116      	ld         al, @(+0x1, x)
     775:	0212      	ld         ah, @(+0x2, x)
     776:	0A00      	**prefx    0xA
     777:	0318      	ld         x, #+0xA03
     778:	14E0      	bra        +0x14 <L0+0x26:0x78C[p]>
     779:	091B      	ld         x, @(+0x9, y)
     77A:	0412      	ld         ah, @(+0x4, x)
     77B:	0817      	ld         al, @(+0x8, y)
     77C:	0027      	st         al, @(0x0, y)
     77D:	E419      	ld         x, @0xFFE4 <register uy>
     77E:	0538      	add        x, #+0x5
     77F:	012B      	st         x, @(+0x1, y)
     780:	0617      	ld         al, @(+0x6, y)
     781:	F819      	ld         x, @0xFFF8 <(scratchpad)>
     782:	FF2B      	st         x, @(-0x1, y)
     783:	FF9F      	bsr        @(-0x1, y)
     784:	F825      	st         al, @0xFFF8 <(scratchpad)>
     785:	0FF4      	beq        +0xF <L0+0x2E:0x794[p]>
     786:	091B      	ld         x, @(+0x9, y)
     787:	0116      	ld         al, @(+0x1, x)
     788:	0212      	ld         ah, @(+0x2, x)
     789:	F819      	ld         x, @0xFFF8 <(scratchpad)>
     78A:	0100      	**prefx    0x1
     78B:	80C8      	and        x, #0x80
     78C:	002B      	st         x, @(0x0, y)
     78D:	0018      	ld         x, #+0x0
     78E:	012B      	st         x, @(+0x1, y)
     78F:	022B      	st         x, @(+0x2, y)
     790:	0100      	**prefx    0x1
     791:	A900      	**prefx    0xA9
     792:	EC9C      	bsr        +0xA8EC <GattAccessRsp:0xB07E[p]>
     793:	27E0      	bra        +0x27 <L0+0x54:0x7BA[p]>
     794:	091B      	ld         x, @(+0x9, y)
     795:	031A      	ld         x, @(+0x3, x)
     796:	E315      	ld         al, @0xFFE3 <register uxl>
     797:	C000      	**prefx    0xC0
     798:	00C4      	and        al, #0xC000
     799:	16F4      	beq        +0x16 <L0+0x49:0x7AF[p]>
     79A:	E315      	ld         al, @0xFFE3 <register uxl>
     79B:	01C4      	and        al, #0x1
     79C:	F825      	st         al, @0xFFF8 <(scratchpad)>
     79D:	091B      	ld         x, @(+0x9, y)
     79E:	0212      	ld         ah, @(+0x2, x)
     79F:	0116      	ld         al, @(+0x1, x)
     7A0:	F899      	tst        @0xFFF8 <(scratchpad)>
     7A1:	07F4      	beq        +0x7 <L0+0x42:0x7A8[p]>
     7A2:	0018      	ld         x, #+0x0
     7A3:	002B      	st         x, @(0x0, y)
     7A4:	051B      	ld         x, @(+0x5, y)
     7A5:	012B      	st         x, @(+0x1, y)
     7A6:	081B      	ld         x, @(+0x8, y)
     7A7:	04E0      	bra        +0x4 <L0+0x45:0x7AB[p]>
     7A8:	0018      	ld         x, #+0x0
     7A9:	002B      	st         x, @(0x0, y)
     7AA:	012B      	st         x, @(+0x1, y)
     7AB:	022B      	st         x, @(+0x2, y)
     7AC:	0100      	**prefx    0x1
     7AD:	A900      	**prefx    0xA9
     7AE:	D09C      	bsr        +0xA8D0 <GattAccessRsp:0xB07E[p]>
     7AF:	091B      	ld         x, @(+0x9, y)
     7B0:	0316      	ld         al, @(+0x3, x)
     7B1:	4000      	**prefx    0x40
     7B2:	00C4      	and        al, #0x4000
     7B3:	07F4      	beq        +0x7 <L0+0x54:0x7BA[p]>
     7B4:	041B      	ld         x, @(+0x4, y)
     7B5:	0312      	ld         ah, @(+0x3, x)
     7B6:	04F4      	beq        +0x4 <L0+0x54:0x7BA[p]>
     7B7:	0617      	ld         al, @(+0x6, y)
     7B8:	FF23      	st         ah, @(-0x1, y)
     7B9:	FF9F      	bsr        @(-0x1, y)
     7BA:	071F      	ld         y, @(+0x7, y)
     7BB:	0B0F      	leave      #+0xB

0x000007BC <ble_gatt_add_db_completed>:
     7BC:	030B      	enter      #+0x3
     7BD:	E119      	ld         x, @0xFFE1 <register al>
     7BE:	3600      	**prefx    0x36
     7BF:	9611      	ld         ah, @0x3596 <bleData>
     7C0:	0AF4      	beq        +0xA <ble_gatt_add_db_completed+0xE:0x7CA[p]>
     7C1:	3500      	**prefx    0x35
     7C2:	DF14      	ld         al, #+0x34DF
     7C3:	0027      	st         al, @(0x0, y)
     7C4:	0100      	**prefx    0x1
     7C5:	4814      	ld         al, #+0x148
     7C6:	0127      	st         al, @(+0x1, y)
     7C7:	0300      	**prefx    0x3
     7C8:	0714      	ld         al, #+0x307
     7C9:	0BE0      	bra        +0xB <ble_gatt_add_db_completed+0x18:0x7D4[p]>
     7CA:	0112      	ld         ah, @(+0x1, x)
     7CB:	0BF4      	beq        +0xB <ble_gatt_add_db_completed+0x1A:0x7D6[p]>
     7CC:	3500      	**prefx    0x35
     7CD:	DF14      	ld         al, #+0x34DF
     7CE:	0027      	st         al, @(0x0, y)
     7CF:	0100      	**prefx    0x1
     7D0:	4B14      	ld         al, #+0x14B
     7D1:	0127      	st         al, @(+0x1, y)
     7D2:	0300      	**prefx    0x3
     7D3:	0214      	ld         al, #+0x302
     7D4:	0300      	**prefx    0x3
     7D5:	F09C      	bsr        +0x2F0 <bug_check_ex:0xAC5[p]>
     7D6:	0114      	ld         al, #+0x1
     7D7:	FF00      	**prefx    0xFF
     7D8:	839C      	bsr        -0x17D <ble_change_state:0x65B[p]>
     7D9:	030F      	leave      #+0x3

0x000007DA <ble_gatt_connect_completed>:
     7DA:	030B      	enter      #+0x3
     7DB:	F825      	st         al, @0xFFF8 <(scratchpad)>
     7DC:	3600      	**prefx    0x36
     7DD:	9611      	ld         ah, @0x3596 <bleData>
     7DE:	E015      	ld         al, @0xFFE0 <register ah>
     7DF:	FF34      	add        al, #-0x1
     7E0:	0184      	cmp        al, #+0x1
     7E1:	0B2C      	bcz        +0xB <ble_gatt_connect_completed+0x12:0x7EC[p]>
     7E2:	3500      	**prefx    0x35
     7E3:	DF14      	ld         al, #+0x34DF
     7E4:	0027      	st         al, @(0x0, y)
     7E5:	0100      	**prefx    0x1
     7E6:	5518      	ld         x, #+0x155
     7E7:	012B      	st         x, @(+0x1, y)
     7E8:	0300      	**prefx    0x3
     7E9:	0714      	ld         al, #+0x307
     7EA:	0300      	**prefx    0x3
     7EB:	DA9C      	bsr        +0x2DA <bug_check_ex:0xAC5[p]>
     7EC:	F819      	ld         x, @0xFFF8 <(scratchpad)>
     7ED:	079A      	tst        @(+0x7, x)
     7EE:	03F4      	beq        +0x3 <ble_gatt_connect_completed+0x17:0x7F1[p]>
     7EF:	0614      	ld         al, #+0x6
     7F0:	23E0      	bra        +0x23 <___libgatt_lib_db_1063+0x13:0x813[p]>
     7F1:	0514      	ld         al, #+0x5
     7F2:	3600      	**prefx    0x36
     7F3:	9A10      	ld         ah, #+0x359A
     7F4:	F819      	ld         x, @0xFFF8 <(scratchpad)>
     7F5:	0138      	add        x, #+0x1
     7F6:	FD09      	bc2        
     7F7:	F819      	ld         x, @0xFFF8 <(scratchpad)>
     7F8:	061A      	ld         x, @(+0x6, x)
     7F9:	3600      	**prefx    0x36
     7FA:	9F29      	st         x, @0x359F <bleData+0x9>
     7FB:	0314      	ld         al, #+0x3
     7FC:	FE00      	**prefx    0xFE
     7FD:	5E9C      	bsr        -0x1A2 <ble_change_state:0x65B[p]>
     7FE:	3600      	**prefx    0x36
     7FF:	A099      	tst        @0x35A0 <bleData+0xA>
     800:	03F4      	beq        +0x3 <___libgatt_lib_db_1063+0x3:0x803[p]>
     801:	0200      	**prefx    0x2
     802:	DA9C      	bsr        +0x1DA <GattOnConnection:0x9DC[p]>
     803:	3600      	**prefx    0x36
     804:	A099      	tst        @0x35A0 <bleData+0xA>
     805:	11F4      	beq        +0x11 <___libgatt_lib_db_1063+0x16:0x816[p]>
     806:	3600      	**prefx    0x36
     807:	A115      	ld         al, @0x35A1 <bleData+0xB>
     808:	0184      	cmp        al, #+0x1
     809:	0DF0      	bne        +0xD <___libgatt_lib_db_1063+0x16:0x816[p]>
     80A:	3600      	**prefx    0x36
     80B:	A515      	ld         al, @0x35A5 <bleData+0xF>
     80C:	C000      	**prefx    0xC0
     80D:	00C4      	and        al, #0xC000
     80E:	4000      	**prefx    0x40
     80F:	0084      	cmp        al, #+0x4000
     810:	06F0      	bne        +0x6 <___libgatt_lib_db_1063+0x16:0x816[p]>
     811:	22E0      	bra        +0x22 <___libgatt_lib_db_1063+0x33:0x833[p]>
     812:	0514      	ld         al, #+0x5
     813:	FE00      	**prefx    0xFE
     814:	479C      	bsr        -0x1B9 <ble_change_state:0x65B[p]>
     815:	2CE0      	bra        +0x2C <___libgatt_lib_db_1063+0x41:0x841[p]>
     816:	0314      	ld         al, #+0x3
     817:	FE00      	**prefx    0xFE
     818:	439C      	bsr        -0x1BD <ble_change_state:0x65B[p]>
     819:	3600      	**prefx    0x36
     81A:	A899      	tst        @0x35A8 <bleData+0x12>
     81B:	26F0      	bne        +0x26 <___libgatt_lib_db_1063+0x41:0x841[p]>
     81C:	3600      	**prefx    0x36
     81D:	B615      	ld         al, @0x35B6 <bleData+0x20>
     81E:	0300      	**prefx    0x3
     81F:	2084      	cmp        al, #+0x320
     820:	21F4      	beq        +0x21 <___libgatt_lib_db_1063+0x41:0x841[p]>
     821:	0014      	ld         al, #+0x0
     822:	3600      	**prefx    0x36
     823:	A725      	st         al, @0x35A7 <bleData+0x11>
     824:	0118      	ld         x, #+0x1
     825:	002B      	st         x, @(0x0, y)
     826:	0600      	**prefx    0x6
     827:	EE14      	ld         al, #+0x5EE
     828:	0127      	st         al, @(+0x1, y)
     829:	0200      	**prefx    0x2
     82A:	C910      	ld         ah, #+0x1C9
     82B:	C400      	**prefx    0xC4
     82C:	8014      	ld         al, #-0x3C80
     82D:	0100      	**prefx    0x1
     82E:	D900      	**prefx    0xD9
     82F:	CC9C      	bsr        +0xD8CC <TimerCreate:0xE0FB[p]>
     830:	3600      	**prefx    0x36
     831:	A825      	st         al, @0x35A8 <bleData+0x12>
     832:	0FE0      	bra        +0xF <___libgatt_lib_db_1063+0x41:0x841[p]>
     833:	0118      	ld         x, #+0x1
     834:	002B      	st         x, @(0x0, y)
     835:	0814      	ld         al, #+0x8
     836:	0127      	st         al, @(+0x1, y)
     837:	3600      	**prefx    0x36
     838:	9A14      	ld         al, #+0x359A
     839:	3600      	**prefx    0x36
     83A:	AB10      	ld         ah, #+0x35AB
     83B:	0100      	**prefx    0x1
     83C:	8400      	**prefx    0x84
     83D:	089C      	bsr        +0x8408 <SMPrivacyMatchAddress:0x8C45[p]>
     83E:	E199      	tst        @0xFFE1 <register al>
     83F:	D7E8      	bpl        -0x29 <___libgatt_lib_db_1063+0x16:0x816[p]>
     840:	D2E0      	bra        -0x2E <___libgatt_lib_db_1063+0x12:0x812[p]>
     841:	030F      	leave      #+0x3

0x00000842 <ble_gatt_handle_ad_timer>:
     842:	010B      	enter      #+0x1
     843:	3600      	**prefx    0x36
     844:	9911      	ld         ah, @0x3599 <bleData+0x3>
     845:	E181      	cmp        ah, @0xFFE1 <register al>
     846:	23F0      	bne        +0x23 <ble_gatt_handle_ad_timer+0x27:0x869[p]>
     847:	0014      	ld         al, #+0x0
     848:	3600      	**prefx    0x36
     849:	9925      	st         al, @0x3599 <bleData+0x3>
     84A:	3600      	**prefx    0x36
     84B:	9615      	ld         al, @0x3596 <bleData>
     84C:	0184      	cmp        al, #+0x1
     84D:	04F4      	beq        +0x4 <ble_gatt_handle_ad_timer+0xF:0x851[p]>
     84E:	0284      	cmp        al, #+0x2
     84F:	1AF0      	bne        +0x1A <ble_gatt_handle_ad_timer+0x27:0x869[p]>
     850:	15E0      	bra        +0x15 <ble_gatt_handle_ad_timer+0x23:0x865[p]>
     851:	3600      	**prefx    0x36
     852:	9718      	ld         x, #+0x3597
     853:	3600      	**prefx    0x36
     854:	AA15      	ld         al, @0x35AA <bleData+0x14>
     855:	0184      	cmp        al, #+0x1
     856:	08F0      	bne        +0x8 <ble_gatt_handle_ad_timer+0x1C:0x85E[p]>
     857:	0100      	**prefx    0x1
     858:	3114      	ld         al, #+0x131
     859:	3600      	**prefx    0x36
     85A:	9725      	st         al, @0x3597 <bleData+0x1>
     85B:	2D00      	**prefx    0x2D
     85C:	0014      	ld         al, #+0x2D00
     85D:	07E0      	bra        +0x7 <ble_gatt_handle_ad_timer+0x22:0x864[p]>
     85E:	0400      	**prefx    0x4
     85F:	9314      	ld         al, #+0x393
     860:	3600      	**prefx    0x36
     861:	9725      	st         al, @0x3597 <bleData+0x1>
     862:	8700      	**prefx    0x87
     863:	0014      	ld         al, #-0x7900
     864:	0126      	st         al, @(+0x1, x)
     865:	001B      	ld         x, @(0x0, y)
     866:	013C      	add        y, #+0x1
     867:	0300      	**prefx    0x3
     868:	E9E0      	bra        +0x2E9 <GattCancelConnectReq:0xB51[p]>
     869:	010F      	leave      #+0x1

0x0000086A <ble_gatt_add_device_name_to_ad_data>:
     86A:	030B      	enter      #+0x3
     86B:	0918      	ld         x, #+0x9
     86C:	3700      	**prefx    0x37
     86D:	D029      	st         x, @0x36D0 <ble_device_name>
     86E:	1F18      	ld         x, #+0x1F
     86F:	E159      	sub        x, @0xFFE1 <register al>
     870:	0D88      	cmp        x, #+0xD
     871:	112C      	bcz        +0x11 <ble_gatt_add_device_name_to_ad_data+0x18:0x882[p]>
     872:	0014      	ld         al, #+0x0
     873:	0027      	st         al, @(0x0, y)
     874:	0D14      	ld         al, #+0xD
     875:	3700      	**prefx    0x37
     876:	D010      	ld         ah, #+0x36D0
     877:	0100      	**prefx    0x1
     878:	8700      	**prefx    0x87
     879:	3D9C      	bsr        +0x873D <LsStoreAdvScanData:0x8FB6[p]>
     87A:	E111      	ld         ah, @0xFFE1 <register al>
     87B:	42F4      	beq        +0x42 <ble_gatt_add_device_name_to_ad_data+0x53:0x8BD[p]>
     87C:	3500      	**prefx    0x35
     87D:	DF18      	ld         x, #+0x34DF
     87E:	002B      	st         x, @(0x0, y)
     87F:	4314      	ld         al, #+0x43
     880:	0127      	st         al, @(+0x1, y)
     881:	14E0      	bra        +0x14 <ble_gatt_add_device_name_to_ad_data+0x2B:0x895[p]>
     882:	1F14      	ld         al, #+0x1F
     883:	E055      	sub        al, @0xFFE0 <register ah>
     884:	0D84      	cmp        al, #+0xD
     885:	142C      	bcz        +0x14 <ble_gatt_add_device_name_to_ad_data+0x2F:0x899[p]>
     886:	0118      	ld         x, #+0x1
     887:	002B      	st         x, @(0x0, y)
     888:	0D14      	ld         al, #+0xD
     889:	3700      	**prefx    0x37
     88A:	D010      	ld         ah, #+0x36D0
     88B:	0100      	**prefx    0x1
     88C:	8700      	**prefx    0x87
     88D:	299C      	bsr        +0x8729 <LsStoreAdvScanData:0x8FB6[p]>
     88E:	E111      	ld         ah, @0xFFE1 <register al>
     88F:	2EF4      	beq        +0x2E <ble_gatt_add_device_name_to_ad_data+0x53:0x8BD[p]>
     890:	3500      	**prefx    0x35
     891:	DF14      	ld         al, #+0x34DF
     892:	0027      	st         al, @(0x0, y)
     893:	4818      	ld         x, #+0x48
     894:	012B      	st         x, @(+0x1, y)
     895:	0300      	**prefx    0x3
     896:	0114      	ld         al, #+0x301
     897:	0200      	**prefx    0x2
     898:	2D9C      	bsr        +0x22D <bug_check_ex:0xAC5[p]>
     899:	0988      	cmp        x, #+0x9
     89A:	122C      	bcz        +0x12 <ble_gatt_add_device_name_to_ad_data+0x42:0x8AC[p]>
     89B:	0814      	ld         al, #+0x8
     89C:	3700      	**prefx    0x37
     89D:	D025      	st         al, @0x36D0 <ble_device_name>
     89E:	0018      	ld         x, #+0x0
     89F:	002B      	st         x, @(0x0, y)
     8A0:	3700      	**prefx    0x37
     8A1:	D010      	ld         ah, #+0x36D0
     8A2:	0100      	**prefx    0x1
     8A3:	8700      	**prefx    0x87
     8A4:	129C      	bsr        +0x8712 <LsStoreAdvScanData:0x8FB6[p]>
     8A5:	E111      	ld         ah, @0xFFE1 <register al>
     8A6:	17F4      	beq        +0x17 <ble_gatt_add_device_name_to_ad_data+0x53:0x8BD[p]>
     8A7:	3500      	**prefx    0x35
     8A8:	DF14      	ld         al, #+0x34DF
     8A9:	0027      	st         al, @(0x0, y)
     8AA:	4F18      	ld         x, #+0x4F
     8AB:	E9E0      	bra        -0x17 <ble_gatt_add_device_name_to_ad_data+0x2A:0x894[p]>
     8AC:	0818      	ld         x, #+0x8
     8AD:	3700      	**prefx    0x37
     8AE:	D029      	st         x, @0x36D0 <ble_device_name>
     8AF:	0118      	ld         x, #+0x1
     8B0:	002B      	st         x, @(0x0, y)
     8B1:	3700      	**prefx    0x37
     8B2:	D010      	ld         ah, #+0x36D0
     8B3:	0100      	**prefx    0x1
     8B4:	8700      	**prefx    0x87
     8B5:	019C      	bsr        +0x8701 <LsStoreAdvScanData:0x8FB6[p]>
     8B6:	E111      	ld         ah, @0xFFE1 <register al>
     8B7:	06F4      	beq        +0x6 <ble_gatt_add_device_name_to_ad_data+0x53:0x8BD[p]>
     8B8:	3500      	**prefx    0x35
     8B9:	DF14      	ld         al, #+0x34DF
     8BA:	0027      	st         al, @(0x0, y)
     8BB:	5618      	ld         x, #+0x56
     8BC:	D8E0      	bra        -0x28 <ble_gatt_add_device_name_to_ad_data+0x2A:0x894[p]>
     8BD:	030F      	leave      #+0x3

0x000008BE <ble_gatt_set_ad_params>:
     8BE:	2D0B      	enter      #+0x2D
     8BF:	F825      	st         al, @0xFFF8 <(scratchpad)>
     8C0:	3500      	**prefx    0x35
     8C1:	BD15      	ld         al, @0x34BD <DATA_CONST_END+0x2>
     8C2:	0527      	st         al, @(+0x5, y)
     8C3:	0314      	ld         al, #+0x3
     8C4:	E411      	ld         ah, @0xFFE4 <register uy>
     8C5:	0630      	add        ah, #+0x6
     8C6:	3500      	**prefx    0x35
     8C7:	FD18      	ld         x, #+0x34FD
     8C8:	FD09      	bc2        
     8C9:	F899      	tst        @0xFFF8 <(scratchpad)>
     8CA:	0AF4      	beq        +0xA <ble_gatt_set_ad_params+0x16:0x8D4[p]>
     8CB:	2A27      	st         al, @(+0x2A, y)
     8CC:	EA00      	**prefx    0xEA
     8CD:	6014      	ld         al, #-0x15A0
     8CE:	2B27      	st         al, @(+0x2B, y)
     8CF:	0014      	ld         al, #+0x0
     8D0:	2827      	st         al, @(+0x28, y)
     8D1:	EA00      	**prefx    0xEA
     8D2:	6014      	ld         al, #-0x15A0
     8D3:	0AE0      	bra        +0xA <ble_gatt_set_ad_params+0x1F:0x8DD[p]>
     8D4:	1314      	ld         al, #+0x13
     8D5:	2A27      	st         al, @(+0x2A, y)
     8D6:	8800      	**prefx    0x88
     8D7:	0014      	ld         al, #-0x7800
     8D8:	2B27      	st         al, @(+0x2B, y)
     8D9:	1314      	ld         al, #+0x13
     8DA:	2827      	st         al, @(+0x28, y)
     8DB:	8800      	**prefx    0x88
     8DC:	0014      	ld         al, #-0x7800
     8DD:	2927      	st         al, @(+0x29, y)
     8DE:	0A14      	ld         al, #+0xA
     8DF:	0427      	st         al, @(+0x4, y)
     8E0:	0100      	**prefx    0x1
     8E1:	FF14      	ld         al, #+0xFF
     8E2:	0327      	st         al, @(+0x3, y)
     8E3:	0314      	ld         al, #+0x3
     8E4:	0027      	st         al, @(0x0, y)
     8E5:	0114      	ld         al, #+0x1
     8E6:	0127      	st         al, @(+0x1, y)
     8E7:	0227      	st         al, @(+0x2, y)
     8E8:	0314      	ld         al, #+0x3
     8E9:	0310      	ld         ah, #+0x3
     8EA:	0100      	**prefx    0x1
     8EB:	8500      	**prefx    0x85
     8EC:	109C      	bsr        +0x8510 <GapSetMode:0x8DFC[p]>
     8ED:	E111      	ld         ah, @0xFFE1 <register al>
     8EE:	07F4      	beq        +0x7 <ble_gatt_set_ad_params+0x37:0x8F5[p]>
     8EF:	3500      	**prefx    0x35
     8F0:	DF14      	ld         al, #+0x34DF
     8F1:	0027      	st         al, @(0x0, y)
     8F2:	0100      	**prefx    0x1
     8F3:	9A14      	ld         al, #+0x9A
     8F4:	11E0      	bra        +0x11 <ble_gatt_set_ad_params+0x47:0x905[p]>
     8F5:	2817      	ld         al, @(+0x28, y)
     8F6:	0027      	st         al, @(0x0, y)
     8F7:	2917      	ld         al, @(+0x29, y)
     8F8:	0127      	st         al, @(+0x1, y)
     8F9:	2A13      	ld         ah, @(+0x2A, y)
     8FA:	2B17      	ld         al, @(+0x2B, y)
     8FB:	0100      	**prefx    0x1
     8FC:	8500      	**prefx    0x85
     8FD:	729C      	bsr        +0x8572 <GapSetAdvInterval:0x8E6F[p]>
     8FE:	E111      	ld         ah, @0xFFE1 <register al>
     8FF:	0BF4      	beq        +0xB <ble_gatt_set_ad_params+0x4C:0x90A[p]>
     900:	3500      	**prefx    0x35
     901:	DF14      	ld         al, #+0x34DF
     902:	0027      	st         al, @(0x0, y)
     903:	0100      	**prefx    0x1
     904:	9C14      	ld         al, #+0x9C
     905:	0127      	st         al, @(+0x1, y)
     906:	0300      	**prefx    0x3
     907:	0114      	ld         al, #+0x301
     908:	0200      	**prefx    0x2
     909:	BC9C      	bsr        +0x1BC <bug_check_ex:0xAC5[p]>
     90A:	3600      	**prefx    0x36
     90B:	AA99      	tst        @0x35AA <bleData+0x14>
     90C:	11F4      	beq        +0x11 <ble_gatt_set_ad_params+0x5F:0x91D[p]>
     90D:	3600      	**prefx    0x36
     90E:	A114      	ld         al, #+0x35A1
     90F:	0100      	**prefx    0x1
     910:	8800      	**prefx    0x88
     911:	679C      	bsr        +0x8867 <LsAddWhiteListDevice:0x9178[p]>
     912:	E111      	ld         ah, @0xFFE1 <register al>
     913:	0AF4      	beq        +0xA <ble_gatt_set_ad_params+0x5F:0x91D[p]>
     914:	3500      	**prefx    0x35
     915:	DF14      	ld         al, #+0x34DF
     916:	0027      	st         al, @(0x0, y)
     917:	0100      	**prefx    0x1
     918:	A214      	ld         al, #+0xA2
     919:	0127      	st         al, @(+0x1, y)
     91A:	0300      	**prefx    0x3
     91B:	0414      	ld         al, #+0x304
     91C:	ECE0      	bra        -0x14 <ble_gatt_set_ad_params+0x4A:0x908[p]>
     91D:	0014      	ld         al, #+0x0
     91E:	0027      	st         al, @(0x0, y)
     91F:	0010      	ld         ah, #+0x0
     920:	0100      	**prefx    0x1
     921:	8700      	**prefx    0x87
     922:	949C      	bsr        +0x8694 <LsStoreAdvScanData:0x8FB6[p]>
     923:	E111      	ld         ah, @0xFFE1 <register al>
     924:	07F4      	beq        +0x7 <ble_gatt_set_ad_params+0x6D:0x92B[p]>
     925:	3500      	**prefx    0x35
     926:	DF14      	ld         al, #+0x34DF
     927:	0027      	st         al, @(0x0, y)
     928:	0100      	**prefx    0x1
     929:	A714      	ld         al, #+0xA7
     92A:	DBE0      	bra        -0x25 <ble_gatt_set_ad_params+0x47:0x905[p]>
     92B:	0314      	ld         al, #+0x3
     92C:	0927      	st         al, @(+0x9, y)
     92D:	3714      	ld         al, #+0x37
     92E:	0A27      	st         al, @(+0xA, y)
     92F:	1314      	ld         al, #+0x13
     930:	0B27      	st         al, @(+0xB, y)
     931:	0014      	ld         al, #+0x0
     932:	0027      	st         al, @(0x0, y)
     933:	0314      	ld         al, #+0x3
     934:	E411      	ld         ah, @0xFFE4 <register uy>
     935:	0930      	add        ah, #+0x9
     936:	0100      	**prefx    0x1
     937:	8600      	**prefx    0x86
     938:	7E9C      	bsr        +0x867E <LsStoreAdvScanData:0x8FB6[p]>
     939:	E111      	ld         ah, @0xFFE1 <register al>
     93A:	07F4      	beq        +0x7 <ble_gatt_set_ad_params+0x83:0x941[p]>
     93B:	3500      	**prefx    0x35
     93C:	DF14      	ld         al, #+0x34DF
     93D:	0027      	st         al, @(0x0, y)
     93E:	0100      	**prefx    0x1
     93F:	B214      	ld         al, #+0xB2
     940:	C5E0      	bra        -0x3B <ble_gatt_set_ad_params+0x47:0x905[p]>
     941:	0014      	ld         al, #+0x0
     942:	0027      	st         al, @(0x0, y)
     943:	0214      	ld         al, #+0x2
     944:	E411      	ld         ah, @0xFFE4 <register uy>
     945:	0630      	add        ah, #+0x6
     946:	0100      	**prefx    0x1
     947:	8600      	**prefx    0x86
     948:	6E9C      	bsr        +0x866E <LsStoreAdvScanData:0x8FB6[p]>
     949:	E111      	ld         ah, @0xFFE1 <register al>
     94A:	07F4      	beq        +0x7 <ble_gatt_set_ad_params+0x93:0x951[p]>
     94B:	3500      	**prefx    0x35
     94C:	DF14      	ld         al, #+0x34DF
     94D:	0027      	st         al, @(0x0, y)
     94E:	0100      	**prefx    0x1
     94F:	B914      	ld         al, #+0xB9
     950:	B5E0      	bra        -0x4B <ble_gatt_set_ad_params+0x47:0x905[p]>
     951:	E415      	ld         al, @0xFFE4 <register uy>
     952:	0334      	add        al, #+0x3
     953:	0200      	**prefx    0x2
     954:	C59C      	bsr        +0x1C5 <LsReadTransmitPowerLevel:0xB19[p]>
     955:	E111      	ld         ah, @0xFFE1 <register al>
     956:	0AF4      	beq        +0xA <ble_gatt_set_ad_params+0xA2:0x960[p]>
     957:	3500      	**prefx    0x35
     958:	DF14      	ld         al, #+0x34DF
     959:	0027      	st         al, @(0x0, y)
     95A:	0100      	**prefx    0x1
     95B:	BD14      	ld         al, #+0xBD
     95C:	0127      	st         al, @(+0x1, y)
     95D:	0300      	**prefx    0x3
     95E:	0314      	ld         al, #+0x303
     95F:	A9E0      	bra        -0x57 <ble_gatt_set_ad_params+0x4A:0x908[p]>
     960:	0317      	ld         al, @(+0x3, y)
     961:	0527      	st         al, @(+0x5, y)
     962:	0014      	ld         al, #+0x0
     963:	0027      	st         al, @(0x0, y)
     964:	0214      	ld         al, #+0x2
     965:	E411      	ld         ah, @0xFFE4 <register uy>
     966:	0430      	add        ah, #+0x4
     967:	0100      	**prefx    0x1
     968:	8600      	**prefx    0x86
     969:	4D9C      	bsr        +0x864D <LsStoreAdvScanData:0x8FB6[p]>
     96A:	E111      	ld         ah, @0xFFE1 <register al>
     96B:	07F4      	beq        +0x7 <ble_gatt_set_ad_params+0xB4:0x972[p]>
     96C:	3500      	**prefx    0x35
     96D:	DF14      	ld         al, #+0x34DF
     96E:	0027      	st         al, @(0x0, y)
     96F:	0100      	**prefx    0x1
     970:	C714      	ld         al, #+0xC7
     971:	94E0      	bra        -0x6C <ble_gatt_set_ad_params+0x47:0x905[p]>
     972:	0E14      	ld         al, #+0xE
     973:	0010      	ld         ah, #+0x0
     974:	FF00      	**prefx    0xFF
     975:	F59C      	bsr        -0x10B <ble_gatt_add_device_name_to_ad_data:0x86A[p]>
     976:	2D0F      	leave      #+0x2D

0x00000977 <ble_start_ads>:
     977:	030B      	enter      #+0x3
     978:	FF18      	ld         x, #-0x1
     979:	3600      	**prefx    0x36
     97A:	9F29      	st         x, @0x359F <bleData+0x9>
     97B:	FF00      	**prefx    0xFF
     97C:	429C      	bsr        -0xBE <ble_gatt_set_ad_params:0x8BE[p]>
     97D:	3600      	**prefx    0x36
     97E:	AA15      	ld         al, @0x35AA <bleData+0x14>
     97F:	0184      	cmp        al, #+0x1
     980:	0EF0      	bne        +0xE <ble_start_ads+0x17:0x98E[p]>
     981:	3600      	**prefx    0x36
     982:	A115      	ld         al, @0x35A1 <bleData+0xB>
     983:	0184      	cmp        al, #+0x1
     984:	08F0      	bne        +0x8 <ble_start_ads+0x15:0x98C[p]>
     985:	3600      	**prefx    0x36
     986:	A515      	ld         al, @0x35A5 <bleData+0xF>
     987:	C000      	**prefx    0xC0
     988:	00C4      	and        al, #0xC000
     989:	4000      	**prefx    0x40
     98A:	0084      	cmp        al, #+0x4000
     98B:	03F4      	beq        +0x3 <ble_start_ads+0x17:0x98E[p]>
     98C:	0310      	ld         ah, #+0x3
     98D:	02E0      	bra        +0x2 <ble_start_ads+0x18:0x98F[p]>
     98E:	0410      	ld         ah, #+0x4
     98F:	0014      	ld         al, #+0x0
     990:	0100      	**prefx    0x1
     991:	A600      	**prefx    0xA6
     992:	CD9C      	bsr        +0xA5CD <GattConnectReq:0xAF5F[p]>
     993:	3600      	**prefx    0x36
     994:	9715      	ld         al, @0x3597 <bleData+0x1>
     995:	3600      	**prefx    0x36
     996:	98B5      	or         al, @0x3598 <bleData+0x2>
     997:	14F4      	beq        +0x14 <ble_start_ads+0x34:0x9AB[p]>
     998:	3600      	**prefx    0x36
     999:	9915      	ld         al, @0x3599 <bleData+0x3>
     99A:	0100      	**prefx    0x1
     99B:	D700      	**prefx    0xD7
     99C:	A39C      	bsr        +0xD6A3 <TimerDelete:0xE03F[p]>
     99D:	0114      	ld         al, #+0x1
     99E:	0027      	st         al, @(0x0, y)
     99F:	0800      	**prefx    0x8
     9A0:	4218      	ld         x, #+0x842
     9A1:	012B      	st         x, @(+0x1, y)
     9A2:	3600      	**prefx    0x36
     9A3:	9815      	ld         al, @0x3598 <bleData+0x2>
     9A4:	3600      	**prefx    0x36
     9A5:	9711      	ld         ah, @0x3597 <bleData+0x1>
     9A6:	0100      	**prefx    0x1
     9A7:	D700      	**prefx    0xD7
     9A8:	539C      	bsr        +0xD753 <TimerCreate:0xE0FB[p]>
     9A9:	3600      	**prefx    0x36
     9AA:	9925      	st         al, @0x3599 <bleData+0x3>
     9AB:	030F      	leave      #+0x3

0x000009AC <ble_trigger_fast_ads>:
     9AC:	3600      	**prefx    0x36
     9AD:	A099      	tst        @0x35A0 <bleData+0xA>
     9AE:	16F4      	beq        +0x16 <ble_trigger_fast_ads+0x18:0x9C4[p]>
     9AF:	3600      	**prefx    0x36
     9B0:	A115      	ld         al, @0x35A1 <bleData+0xB>
     9B1:	0184      	cmp        al, #+0x1
     9B2:	08F0      	bne        +0x8 <ble_trigger_fast_ads+0xE:0x9BA[p]>
     9B3:	3600      	**prefx    0x36
     9B4:	A515      	ld         al, @0x35A5 <bleData+0xF>
     9B5:	C000      	**prefx    0xC0
     9B6:	00C4      	and        al, #0xC000
     9B7:	4000      	**prefx    0x40
     9B8:	0084      	cmp        al, #+0x4000
     9B9:	04F4      	beq        +0x4 <ble_trigger_fast_ads+0x11:0x9BD[p]>
     9BA:	0114      	ld         al, #+0x1
     9BB:	3600      	**prefx    0x36
     9BC:	AA25      	st         al, @0x35AA <bleData+0x14>
     9BD:	0100      	**prefx    0x1
     9BE:	9814      	ld         al, #+0x98
     9BF:	3600      	**prefx    0x36
     9C0:	9725      	st         al, @0x3597 <bleData+0x1>
     9C1:	9700      	**prefx    0x97
     9C2:	8014      	ld         al, #-0x6980
     9C3:	07E0      	bra        +0x7 <ble_trigger_fast_ads+0x1E:0x9CA[p]>
     9C4:	0200      	**prefx    0x2
     9C5:	C914      	ld         al, #+0x1C9
     9C6:	3600      	**prefx    0x36
     9C7:	9725      	st         al, @0x3597 <bleData+0x1>
     9C8:	C400      	**prefx    0xC4
     9C9:	8014      	ld         al, #-0x3C80
     9CA:	3600      	**prefx    0x36
     9CB:	9825      	st         al, @0x3598 <bleData+0x2>
     9CC:	0114      	ld         al, #+0x1
     9CD:	AAE0      	bra        -0x56 <ble_start_ads:0x977[p]>

0x000009CE <ble_gatt_connect_cancelled>:
     9CE:	010B      	enter      #+0x1
     9CF:	0100      	**prefx    0x1
     9D0:	8800      	**prefx    0x88
     9D1:	B09C      	bsr        +0x87B0 <LsResetWhiteList:0x9181[p]>
     9D2:	3600      	**prefx    0x36
     9D3:	9615      	ld         al, @0x3596 <bleData>
     9D4:	0184      	cmp        al, #+0x1
     9D5:	03F0      	bne        +0x3 <ble_gatt_connect_cancelled+0xA:0x9D8[p]>
     9D6:	D69C      	bsr        -0x2A <ble_trigger_fast_ads:0x9AC[p]>
     9D7:	04E0      	bra        +0x4 <ble_gatt_connect_cancelled+0xD:0x9DB[p]>
     9D8:	0114      	ld         al, #+0x1
     9D9:	FD00      	**prefx    0xFD
     9DA:	819C      	bsr        -0x37F <ble_change_state:0x65B[p]>
     9DB:	010F      	leave      #+0x1

0x000009DC <GattOnConnection>:
     9DC:	00E2      	bra        0x0, x

0x000009DD <builtin_i2c_init>:
     9DD:	030B      	enter      #+0x3
     9DE:	0100      	**prefx    0x1
     9DF:	FF14      	ld         al, #+0xFF
     9E0:	0027      	st         al, @(0x0, y)
     9E1:	0718      	ld         x, #+0x7
     9E2:	012B      	st         x, @(+0x1, y)
     9E3:	E111      	ld         ah, @0xFFE1 <register al>
     9E4:	0100      	**prefx    0x1
     9E5:	E000      	**prefx    0xE0
     9E6:	3C9C      	bsr        +0xE03C <I2cInit:0xEA22[p]>
     9E7:	1514      	ld         al, #+0x15
     9E8:	0F10      	ld         ah, #+0xF
     9E9:	0100      	**prefx    0x1
     9EA:	E000      	**prefx    0xE0
     9EB:	309C      	bsr        +0xE030 <I2cConfigClock:0xEA1B[p]>
     9EC:	0114      	ld         al, #+0x1
     9ED:	0100      	**prefx    0x1
     9EE:	E000      	**prefx    0xE0
     9EF:	0B9C      	bsr        +0xE00B <I2cEnable:0xE9FA[p]>
     9F0:	030F      	leave      #+0x3

0x000009F1 <builtin_i2c_master_transfer>:
     9F1:	070B      	enter      #+0x7
     9F2:	0427      	st         al, @(+0x4, y)
     9F3:	0523      	st         ah, @(+0x5, y)
     9F4:	0114      	ld         al, #+0x1
     9F5:	0100      	**prefx    0x1
     9F6:	E000      	**prefx    0xE0
     9F7:	039C      	bsr        +0xE003 <I2cEnable:0xE9FA[p]>
     9F8:	0400      	**prefx    0x4
     9F9:	E814      	ld         al, #+0x3E8
     9FA:	0027      	st         al, @(0x0, y)
     9FB:	0014      	ld         al, #+0x0
     9FC:	0110      	ld         ah, #+0x1
     9FD:	0100      	**prefx    0x1
     9FE:	E200      	**prefx    0xE2
     9FF:	319C      	bsr        +0xE231 <I2cRawCommand:0xEC30[p]>
     A00:	0327      	st         al, @(+0x3, y)
     A01:	19F0      	bne        +0x19 <builtin_i2c_master_transfer+0x29:0xA1A[p]>
     A02:	0018      	ld         x, #+0x0
     A03:	F829      	st         x, @0xFFF8 <(scratchpad)>
     A04:	099B      	tst        @(+0x9, y)
     A05:	03F4      	beq        +0x3 <builtin_i2c_master_transfer+0x17:0xA08[p]>
     A06:	0114      	ld         al, #+0x1
     A07:	F825      	st         al, @0xFFF8 <(scratchpad)>
     A08:	041B      	ld         x, @(+0x4, y)
     A09:	0016      	ld         al, @(0x0, x)
     A0A:	01A0      	asl        #0x1
     A0B:	F8B5      	or         al, @0xFFF8 <(scratchpad)>
     A0C:	0100      	**prefx    0x1
     A0D:	E200      	**prefx    0xE2
     A0E:	4E9C      	bsr        +0xE24E <I2cRawWriteByte:0xEC5C[p]>
     A0F:	0327      	st         al, @(+0x3, y)
     A10:	0AF0      	bne        +0xA <builtin_i2c_master_transfer+0x29:0xA1A[p]>
     A11:	0400      	**prefx    0x4
     A12:	E814      	ld         al, #+0x3E8
     A13:	0027      	st         al, @(0x0, y)
     A14:	0314      	ld         al, #+0x3
     A15:	0110      	ld         ah, #+0x1
     A16:	0100      	**prefx    0x1
     A17:	E200      	**prefx    0xE2
     A18:	189C      	bsr        +0xE218 <I2cRawCommand:0xEC30[p]>
     A19:	0327      	st         al, @(+0x3, y)
     A1A:	041B      	ld         x, @(+0x4, y)
     A1B:	0116      	ld         al, @(+0x1, x)
     A1C:	0184      	cmp        al, #+0x1
     A1D:	0A2C      	bcz        +0xA <builtin_i2c_master_transfer+0x36:0xA27[p]>
     A1E:	3500      	**prefx    0x35
     A1F:	0014      	ld         al, #+0x3500
     A20:	0027      	st         al, @(0x0, y)
     A21:	2918      	ld         x, #+0x29
     A22:	012B      	st         x, @(+0x1, y)
     A23:	0214      	ld         al, #+0x2
     A24:	0010      	ld         ah, #+0x0
     A25:	0100      	**prefx    0x1
     A26:	9F9C      	bsr        +0x9F <bug_check_ex:0xAC5[p]>
     A27:	FF34      	add        al, #-0x1
     A28:	0227      	st         al, @(+0x2, y)
     A29:	1CE0      	bra        +0x1C <builtin_i2c_master_transfer+0x54:0xA45[p]>
     A2A:	039B      	tst        @(+0x3, y)
     A2B:	17F0      	bne        +0x17 <builtin_i2c_master_transfer+0x51:0xA42[p]>
     A2C:	0217      	ld         al, @(+0x2, y)
     A2D:	03A0      	asl        #0x3
     A2E:	E119      	ld         x, @0xFFE1 <register al>
     A2F:	0513      	ld         ah, @(+0x5, y)
     A30:	E3A5      	asr        @0xFFE3 <register uxl>
     A31:	E015      	ld         al, @0xFFE0 <register ah>
     A32:	0100      	**prefx    0x1
     A33:	FFC4      	and        al, #0xFF
     A34:	0100      	**prefx    0x1
     A35:	E200      	**prefx    0xE2
     A36:	269C      	bsr        +0xE226 <I2cRawWriteByte:0xEC5C[p]>
     A37:	0327      	st         al, @(+0x3, y)
     A38:	0AF0      	bne        +0xA <builtin_i2c_master_transfer+0x51:0xA42[p]>
     A39:	0400      	**prefx    0x4
     A3A:	E814      	ld         al, #+0x3E8
     A3B:	0027      	st         al, @(0x0, y)
     A3C:	0314      	ld         al, #+0x3
     A3D:	0110      	ld         ah, #+0x1
     A3E:	0100      	**prefx    0x1
     A3F:	E200      	**prefx    0xE2
     A40:	F09C      	bsr        +0xE1F0 <I2cRawCommand:0xEC30[p]>
     A41:	0327      	st         al, @(+0x3, y)
     A42:	021B      	ld         x, @(+0x2, y)
     A43:	FF38      	add        x, #-0x1
     A44:	022B      	st         x, @(+0x2, y)
     A45:	029B      	tst        @(+0x2, y)
     A46:	E4E8      	bpl        -0x1C <builtin_i2c_master_transfer+0x39:0xA2A[p]>
     A47:	099B      	tst        @(+0x9, y)
     A48:	26F4      	beq        +0x26 <builtin_i2c_master_transfer+0x7D:0xA6E[p]>
     A49:	039B      	tst        @(+0x3, y)
     A4A:	2CF0      	bne        +0x2C <builtin_i2c_master_transfer+0x85:0xA76[p]>
     A4B:	0400      	**prefx    0x4
     A4C:	E814      	ld         al, #+0x3E8
     A4D:	0027      	st         al, @(0x0, y)
     A4E:	0114      	ld         al, #+0x1
     A4F:	0110      	ld         ah, #+0x1
     A50:	0100      	**prefx    0x1
     A51:	E200      	**prefx    0xE2
     A52:	DE9C      	bsr        +0xE1DE <I2cRawCommand:0xEC30[p]>
     A53:	0327      	st         al, @(+0x3, y)
     A54:	22F0      	bne        +0x22 <builtin_i2c_master_transfer+0x85:0xA76[p]>
     A55:	041B      	ld         x, @(+0x4, y)
     A56:	0016      	ld         al, @(0x0, x)
     A57:	01A0      	asl        #0x1
     A58:	01B4      	or         al, #+0x1
     A59:	0100      	**prefx    0x1
     A5A:	E200      	**prefx    0xE2
     A5B:	019C      	bsr        +0xE201 <I2cRawWriteByte:0xEC5C[p]>
     A5C:	0327      	st         al, @(+0x3, y)
     A5D:	19F0      	bne        +0x19 <builtin_i2c_master_transfer+0x85:0xA76[p]>
     A5E:	0400      	**prefx    0x4
     A5F:	E814      	ld         al, #+0x3E8
     A60:	0027      	st         al, @(0x0, y)
     A61:	0314      	ld         al, #+0x3
     A62:	0110      	ld         ah, #+0x1
     A63:	0100      	**prefx    0x1
     A64:	E200      	**prefx    0xE2
     A65:	CB9C      	bsr        +0xE1CB <I2cRawCommand:0xEC30[p]>
     A66:	0327      	st         al, @(+0x3, y)
     A67:	0FF0      	bne        +0xF <builtin_i2c_master_transfer+0x85:0xA76[p]>
     A68:	0717      	ld         al, @(+0x7, y)
     A69:	0813      	ld         ah, @(+0x8, y)
     A6A:	0100      	**prefx    0x1
     A6B:	E200      	**prefx    0xE2
     A6C:	399C      	bsr        +0xE239 <I2cRawRead:0xECA5[p]>
     A6D:	08E0      	bra        +0x8 <builtin_i2c_master_transfer+0x84:0xA75[p]>
     A6E:	039B      	tst        @(+0x3, y)
     A6F:	07F0      	bne        +0x7 <builtin_i2c_master_transfer+0x85:0xA76[p]>
     A70:	0717      	ld         al, @(+0x7, y)
     A71:	0813      	ld         ah, @(+0x8, y)
     A72:	0100      	**prefx    0x1
     A73:	E200      	**prefx    0xE2
     A74:	1C9C      	bsr        +0xE21C <I2cRawWrite:0xEC90[p]>
     A75:	0327      	st         al, @(+0x3, y)
     A76:	0400      	**prefx    0x4
     A77:	E818      	ld         x, #+0x3E8
     A78:	002B      	st         x, @(0x0, y)
     A79:	0214      	ld         al, #+0x2
     A7A:	0110      	ld         ah, #+0x1
     A7B:	0100      	**prefx    0x1
     A7C:	E200      	**prefx    0xE2
     A7D:	B39C      	bsr        +0xE1B3 <I2cRawCommand:0xEC30[p]>
     A7E:	0100      	**prefx    0x1
     A7F:	E200      	**prefx    0xE2
     A80:	809C      	bsr        +0xE180 <I2cRawTerminate:0xEC00[p]>
     A81:	0014      	ld         al, #+0x0
     A82:	0100      	**prefx    0x1
     A83:	DF00      	**prefx    0xDF
     A84:	769C      	bsr        +0xDF76 <I2cEnable:0xE9FA[p]>
     A85:	039B      	tst        @(+0x3, y)
     A86:	03F0      	bne        +0x3 <builtin_i2c_master_transfer+0x98:0xA89[p]>
     A87:	0014      	ld         al, #+0x0
     A88:	04E0      	bra        +0x4 <builtin_i2c_master_transfer+0x9B:0xA8C[p]>
     A89:	0317      	ld         al, @(+0x3, y)
     A8A:	8000      	**prefx    0x80
     A8B:	00B4      	or         al, #-0x8000
     A8C:	070F      	leave      #+0x7

0x00000A8D <nvm_disable>:
     A8D:	010B      	enter      #+0x1
     A8E:	0100      	**prefx    0x1
     A8F:	E500      	**prefx    0xE5
     A90:	A49C      	bsr        +0xE4A4 <NvmDisable:0xEF34[p]>
     A91:	0714      	ld         al, #+0x7
     A92:	0100      	**prefx    0x1
     A93:	ED00      	**prefx    0xED
     A94:	7F9C      	bsr        +0xED7F <PioSetI2CPullMode:0xF813[p]>
     A95:	010F      	leave      #+0x1

0x00000A96 <nvm_init>:
     A96:	010B      	enter      #+0x1
     A97:	0600      	**prefx    0x6
     A98:	779C      	bsr        +0x677 <NvmConfigureI2cEeprom:0x110F[p]>
     A99:	F49C      	bsr        -0xC <nvm_disable:0xA8D[p]>
     A9A:	010F      	leave      #+0x1

0x00000A9B <nvm_write>:
     A9B:	040B      	enter      #+0x4
     A9C:	0027      	st         al, @(0x0, y)
     A9D:	E015      	ld         al, @0xFFE0 <register ah>
     A9E:	0413      	ld         ah, @(+0x4, y)
     A9F:	0100      	**prefx    0x1
     AA0:	E500      	**prefx    0xE5
     AA1:	C39C      	bsr        +0xE4C3 <NvmWrite:0xEF64[p]>
     AA2:	0227      	st         al, @(+0x2, y)
     AA3:	EA9C      	bsr        -0x16 <nvm_disable:0xA8D[p]>
     AA4:	029B      	tst        @(+0x2, y)
     AA5:	0AF4      	beq        +0xA <nvm_write+0x14:0xAAF[p]>
     AA6:	3500      	**prefx    0x35
     AA7:	1D14      	ld         al, #+0x351D
     AA8:	0027      	st         al, @(0x0, y)
     AA9:	3C14      	ld         al, #+0x3C
     AAA:	0127      	st         al, @(+0x1, y)
     AAB:	0100      	**prefx    0x1
     AAC:	0114      	ld         al, #+0x101
     AAD:	0213      	ld         ah, @(+0x2, y)
     AAE:	179C      	bsr        +0x17 <bug_check_ex:0xAC5[p]>
     AAF:	040F      	leave      #+0x4

0x00000AB0 <nvm_read>:
     AB0:	040B      	enter      #+0x4
     AB1:	0027      	st         al, @(0x0, y)
     AB2:	E015      	ld         al, @0xFFE0 <register ah>
     AB3:	0413      	ld         ah, @(+0x4, y)
     AB4:	0100      	**prefx    0x1
     AB5:	E500      	**prefx    0xE5
     AB6:	D49C      	bsr        +0xE4D4 <NvmRead:0xEF8A[p]>
     AB7:	0227      	st         al, @(+0x2, y)
     AB8:	D59C      	bsr        -0x2B <nvm_disable:0xA8D[p]>
     AB9:	029B      	tst        @(+0x2, y)
     ABA:	0AF4      	beq        +0xA <nvm_read+0x14:0xAC4[p]>
     ABB:	3500      	**prefx    0x35
     ABC:	1D14      	ld         al, #+0x351D
     ABD:	0027      	st         al, @(0x0, y)
     ABE:	2814      	ld         al, #+0x28
     ABF:	0127      	st         al, @(+0x1, y)
     AC0:	0100      	**prefx    0x1
     AC1:	0014      	ld         al, #+0x100
     AC2:	0213      	ld         ah, @(+0x2, y)
     AC3:	029C      	bsr        +0x2 <bug_check_ex:0xAC5[p]>
     AC4:	040F      	leave      #+0x4

0x00000AC5 <bug_check_ex>:
     AC5:	010B      	enter      #+0x1
     AC6:	E111      	ld         ah, @0xFFE1 <register al>
     AC7:	3600      	**prefx    0x36
     AC8:	8515      	ld         al, @0x3585 <didBugcheck>
     AC9:	04F0      	bne        +0x4 <bug_check_ex+0x8:0xACD[p]>
     ACA:	0114      	ld         al, #+0x1
     ACB:	3600      	**prefx    0x36
     ACC:	8525      	st         al, @0x3585 <didBugcheck>
     ACD:	E099      	tst        @0xFFE0 <register ah>
     ACE:	05F4      	beq        +0x5 <bug_check_ex+0xE:0xAD3[p]>
     ACF:	E015      	ld         al, @0xFFE0 <register ah>
     AD0:	0100      	**prefx    0x1
     AD1:	ED00      	**prefx    0xED
     AD2:	B39C      	bsr        +0xECB3 <Panic:0xF785[p]>
     AD3:	0100      	**prefx    0x1
     AD4:	DA00      	**prefx    0xDA
     AD5:	CB9C      	bsr        +0xD9CB <WarmReset:0xE4A0[p]>
     AD6:	00E0      	bra        0x0 <bug_check_ex+0x11:0xAD6[p]>

0x00000AD7 <___libgatt_lib_db_4554>:
     AD7:	0B00      	**prefx    0xB
     AD8:	DE14      	ld         al, #+0xADE
     AD9:	9500      	**prefx    0x95
     ADA:	6B10      	ld         ah, #-0x6A95
     ADB:	0100      	**prefx    0x1
     ADC:	AB00      	**prefx    0xAB
     ADD:	FDE0      	bra        +0xAAFD <___libgatt_lib_db_3959:0xB5DA[p]>

0x00000ADE <.LFB6>:
     ADE:	030B      	enter      #+0x3
     ADF:	0027      	st         al, @(0x0, y)
     AE0:	0123      	st         ah, @(+0x1, y)
     AE1:	3E84      	cmp        al, #+0x3E
     AE2:	1EF4      	beq        +0x1E <.LFB6+0x22:0xB00[p]>
     AE3:	3F84      	cmp        al, #+0x3F
     AE4:	04F8      	bcc        +0x4 <.LFB6+0xA:0xAE8[p]>
     AE5:	0584      	cmp        al, #+0x5
     AE6:	23F0      	bne        +0x23 <.LFB6+0x2B:0xB09[p]>
     AE7:	1BE0      	bra        +0x1B <.LFB6+0x24:0xB02[p]>
     AE8:	0017      	ld         al, @(0x0, y)
     AE9:	4284      	cmp        al, #+0x42
     AEA:	05F4      	beq        +0x5 <.LFB6+0x11:0xAEF[p]>
     AEB:	0B00      	**prefx    0xB
     AEC:	B684      	cmp        al, #+0xAB6
     AED:	1CF0      	bne        +0x1C <.LFB6+0x2B:0xB09[p]>
     AEE:	07E0      	bra        +0x7 <.LFB6+0x17:0xAF5[p]>
     AEF:	011B      	ld         x, @(+0x1, y)
     AF0:	0138      	add        x, #+0x1
     AF1:	E315      	ld         al, @0xFFE3 <register uxl>
     AF2:	F800      	**prefx    0xF8
     AF3:	109C      	bsr        -0x7F0 <___libgatt_lib_db_4581:0x303[p]>
     AF4:	0AE0      	bra        +0xA <.LFB6+0x20:0xAFE[p]>
     AF5:	011B      	ld         x, @(+0x1, y)
     AF6:	0116      	ld         al, @(+0x1, x)
     AF7:	0100      	**prefx    0x1
     AF8:	8700      	**prefx    0x87
     AF9:	3E9C      	bsr        +0x873E <___libgatt_lib_db_40:0x9237[p]>
     AFA:	011B      	ld         x, @(+0x1, y)
     AFB:	0126      	st         al, @(+0x1, x)
     AFC:	FF84      	cmp        al, #-0x1
     AFD:	0CF0      	bne        +0xC <.LFB6+0x2B:0xB09[p]>
     AFE:	0114      	ld         al, #+0x1
     AFF:	0FE0      	bra        +0xF <.LFB6+0x30:0xB0E[p]>
     B00:	219C      	bsr        +0x21 <___libgatt_lib_db_4563:0xB21[p]>
     B01:	08E0      	bra        +0x8 <.LFB6+0x2B:0xB09[p]>
     B02:	0014      	ld         al, #+0x0
     B03:	3600      	**prefx    0x36
     B04:	8825      	st         al, @0x3588 <patch_rx_timing_report>
     B05:	3600      	**prefx    0x36
     B06:	8925      	st         al, @0x3589 <patch_pending_mode>
     B07:	3600      	**prefx    0x36
     B08:	8725      	st         al, @0x3587 <patch_pending>
     B09:	0017      	ld         al, @(0x0, y)
     B0A:	0113      	ld         ah, @(+0x1, y)
     B0B:	0100      	**prefx    0x1
     B0C:	8800      	**prefx    0x88
     B0D:	5B9C      	bsr        +0x885B <___libgatt_lib_db_73:0x9368[p]>
     B0E:	030F      	leave      #+0x3

0x00000B0F <LsRadioEventNotification>:
     B0F:	010B      	enter      #+0x1
     B10:	7F00      	**prefx    0x7F
     B11:	4A18      	ld         x, #+0x7F4A
     B12:	F600      	**prefx    0xF6
     B13:	4F29      	st         x, @0xF64F <___libgatt_lib_db_1805>
     B14:	001B      	ld         x, @(0x0, y)
     B15:	013C      	add        y, #+0x1
     B16:	0100      	**prefx    0x1
     B17:	8600      	**prefx    0x86
     B18:	73E0      	bra        +0x8673 <LsRadioEventNotification_A05:0x918B[p]>

0x00000B19 <LsReadTransmitPowerLevel>:
     B19:	020B      	enter      #+0x2
     B1A:	0027      	st         al, @(0x0, y)
     B1B:	0500      	**prefx    0x5
     B1C:	259C      	bsr        +0x525 <___libgatt_lib_db_4645:0x1041[p]>
     B1D:	001B      	ld         x, @(0x0, y)
     B1E:	0026      	st         al, @(0x0, x)
     B1F:	0014      	ld         al, #+0x0
     B20:	020F      	leave      #+0x2

0x00000B21 <___libgatt_lib_db_4563>:
     B21:	010B      	enter      #+0x1
     B22:	9400      	**prefx    0x94
     B23:	6E15      	ld         al, @0x946E <___libgatt_lib_db_79+0x1>
     B24:	0AF4      	beq        +0xA <___libgatt_lib_db_4563+0xD:0xB2E[p]>
     B25:	3600      	**prefx    0x36
     B26:	8611      	ld         ah, @0x3586 <didBugcheck+0x1>
     B27:	E000      	**prefx    0xE0
     B28:	1930      	add        ah, #-0x1FE7
     B29:	FF23      	st         ah, @(-0x1, y)
     B2A:	FF9F      	bsr        @(-0x1, y)
     B2B:	0014      	ld         al, #+0x0
     B2C:	9400      	**prefx    0x94
     B2D:	6E25      	st         al, @0x946E <___libgatt_lib_db_79+0x1>
     B2E:	010F      	leave      #+0x1

0x00000B2F <GattInit>:
     B2F:	020B      	enter      #+0x2
     B30:	0100      	**prefx    0x1
     B31:	8900      	**prefx    0x89
     B32:	9A9C      	bsr        +0x889A <___libgatt_lib_db_74:0x93CC[p]>
     B33:	0100      	**prefx    0x1
     B34:	8B00      	**prefx    0x8B
     B35:	9E9C      	bsr        +0x8A9E <l2cap_init:0x95D3[p]>
     B36:	7C00      	**prefx    0x7C
     B37:	1B9C      	bsr        +0x7C1B <___libgatt_lib_db_465:0x8752[p]>
     B38:	F600      	**prefx    0xF6
     B39:	2F9C      	bsr        -0x9D1 <___libgatt_lib_db_476:0x168[p]>
     B3A:	0600      	**prefx    0x6
     B3B:	0714      	ld         al, #+0x607
     B3C:	9300      	**prefx    0x93
     B3D:	6025      	st         al, @0x9360 <DATA_ROMDATA_START>
     B3E:	0100      	**prefx    0x1
     B3F:	8E00      	**prefx    0x8E
     B40:	3C9C      	bsr        +0x8E3C <___libgatt_lib_db_139:0x997C[p]>
     B41:	2E18      	ld         x, #+0x2E
     B42:	002B      	st         x, @(0x0, y)
     B43:	9700      	**prefx    0x97
     B44:	D714      	ld         al, #-0x6929
     B45:	0010      	ld         ah, #+0x0
     B46:	0100      	**prefx    0x1
     B47:	8200      	**prefx    0x82
     B48:	C59C      	bsr        +0x81C5 <MemSet:0x8D0D[p]>
     B49:	FF14      	ld         al, #-0x1
     B4A:	9700      	**prefx    0x97
     B4B:	D718      	ld         x, #-0x6929
     B4C:	0026      	st         al, @(0x0, x)
     B4D:	9700      	**prefx    0x97
     B4E:	EE25      	st         al, @0x96EE <___libgatt_lib_db_127+0xC>
     B4F:	889C      	bsr        -0x78 <___libgatt_lib_db_4554:0xAD7[p]>
     B50:	020F      	leave      #+0x2

0x00000B51 <GattCancelConnectReq>:
     B51:	010B      	enter      #+0x1
     B52:	CF9C      	bsr        -0x31 <___libgatt_lib_db_4563:0xB21[p]>
     B53:	0100      	**prefx    0x1
     B54:	A400      	**prefx    0xA4
     B55:	089C      	bsr        +0xA408 <GattCancelConnectReq_A05:0xAF5D[p]>
     B56:	010F      	leave      #+0x1

0x00000B57 <___libgatt_lib_db_4544>:
     B57:	020B      	enter      #+0x2
     B58:	3600      	**prefx    0x36
     B59:	8B19      	ld         x, @0x358B <patch_conn_chm_update+0x1>
     B5A:	E500      	**prefx    0xE5
     B5B:	BE38      	add        x, #-0x1B42
     B5C:	0F00      	**prefx    0xF
     B5D:	AE14      	ld         al, #+0xEAE
     B5E:	0027      	st         al, @(0x0, y)
     B5F:	0B14      	ld         al, #+0xB
     B60:	0210      	ld         ah, #+0x2
     B61:	FF2B      	st         x, @(-0x1, y)
     B62:	FF9F      	bsr        @(-0x1, y)
     B63:	3600      	**prefx    0x36
     B64:	8B19      	ld         x, @0x358B <patch_conn_chm_update+0x1>
     B65:	E500      	**prefx    0xE5
     B66:	BE38      	add        x, #-0x1B42
     B67:	0F00      	**prefx    0xF
     B68:	9214      	ld         al, #+0xE92
     B69:	0027      	st         al, @(0x0, y)
     B6A:	0C14      	ld         al, #+0xC
     B6B:	0210      	ld         ah, #+0x2
     B6C:	FF2B      	st         x, @(-0x1, y)
     B6D:	FF9F      	bsr        @(-0x1, y)
     B6E:	020F      	leave      #+0x2

0x00000B6F <.LFB9>:
     B6F:	040B      	enter      #+0x4
     B70:	0227      	st         al, @(+0x2, y)
     B71:	E119      	ld         x, @0xFFE1 <register al>
     B72:	9700      	**prefx    0x97
     B73:	5516      	ld         al, @(-0x68AB, x)
     B74:	0684      	cmp        al, #+0x6
     B75:	25F0      	bne        +0x25 <.LFB9+0x2B:0xB9A[p]>
     B76:	F600      	**prefx    0xF6
     B77:	6C19      	ld         x, @0xF66C <___libgatt_lib_db_1944>
     B78:	0217      	ld         al, @(+0x2, y)
     B79:	02A0      	asl        #0x2
     B7A:	F825      	st         al, @0xFFF8 <(scratchpad)>
     B7B:	0214      	ld         al, #+0x2
     B7C:	F8A1      	asl        @0xFFF8 <(scratchpad)>
     B7D:	E1C9      	and        x, @0xFFE1 <register al>
     B7E:	1CF4      	beq        +0x1C <.LFB9+0x2B:0xB9A[p]>
     B7F:	3600      	**prefx    0x36
     B80:	8B15      	ld         al, @0x358B <patch_conn_chm_update+0x1>
     B81:	0127      	st         al, @(+0x1, y)
     B82:	3600      	**prefx    0x36
     B83:	8B11      	ld         ah, @0x358B <patch_conn_chm_update+0x1>
     B84:	B900      	**prefx    0xB9
     B85:	AF30      	add        ah, #-0x4751
     B86:	0217      	ld         al, @(+0x2, y)
     B87:	FF23      	st         ah, @(-0x1, y)
     B88:	FF9F      	bsr        @(-0x1, y)
     B89:	E111      	ld         ah, @0xFFE1 <register al>
     B8A:	0117      	ld         al, @(+0x1, y)
     B8B:	B700      	**prefx    0xB7
     B8C:	6234      	add        al, #-0x489E
     B8D:	0127      	st         al, @(+0x1, y)
     B8E:	2818      	ld         x, #+0x28
     B8F:	002B      	st         x, @(0x0, y)
     B90:	0014      	ld         al, #+0x0
     B91:	019F      	bsr        @(+0x1, y)
     B92:	3600      	**prefx    0x36
     B93:	8B11      	ld         ah, @0x358B <patch_conn_chm_update+0x1>
     B94:	BD00      	**prefx    0xBD
     B95:	B630      	add        ah, #-0x434A
     B96:	0217      	ld         al, @(+0x2, y)
     B97:	FF23      	st         ah, @(-0x1, y)
     B98:	FF9F      	bsr        @(-0x1, y)
     B99:	09E0      	bra        +0x9 <.LFB9+0x33:0xBA2[p]>
     B9A:	3600      	**prefx    0x36
     B9B:	8B19      	ld         x, @0x358B <patch_conn_chm_update+0x1>
     B9C:	BE00      	**prefx    0xBE
     B9D:	FC38      	add        x, #-0x4204
     B9E:	0217      	ld         al, @(+0x2, y)
     B9F:	0010      	ld         ah, #+0x0
     BA0:	FF2B      	st         x, @(-0x1, y)
     BA1:	FF9F      	bsr        @(-0x1, y)
     BA2:	040F      	leave      #+0x4

0x00000BA3 <___libgatt_lib_db_4594>:
     BA3:	010B      	enter      #+0x1
     BA4:	E119      	ld         x, @0xFFE1 <register al>
     BA5:	0217      	ld         al, @(+0x2, y)
     BA6:	0026      	st         al, @(0x0, x)
     BA7:	0117      	ld         al, @(+0x1, y)
     BA8:	0126      	st         al, @(+0x1, x)
     BA9:	0222      	st         ah, @(+0x2, x)
     BAA:	010F      	leave      #+0x1

0x00000BAB <___libgatt_lib_db_4599>:
     BAB:	020B      	enter      #+0x2
     BAC:	0617      	ld         al, @(+0x6, y)
     BAD:	CE00      	**prefx    0xCE
     BAE:	2384      	cmp        al, #-0x31DD
     BAF:	16F0      	bne        +0x16 <___libgatt_lib_db_4599+0x1A:0xBC5[p]>
     BB0:	3600      	**prefx    0x36
     BB1:	BB99      	tst        @0x35BB <enable_lowduty_directed_adv>
     BB2:	13F4      	beq        +0x13 <___libgatt_lib_db_4599+0x1A:0xBC5[p]>
     BB3:	0417      	ld         al, @(+0x4, y)
     BB4:	3600      	**prefx    0x36
     BB5:	8B19      	ld         x, @0x358B <patch_conn_chm_update+0x1>
     BB6:	F829      	st         x, @0xFFF8 <(scratchpad)>
     BB7:	5790      	smult      #+0x57
     BB8:	9700      	**prefx    0x97
     BB9:	5534      	add        al, #-0x68AB
     BBA:	0027      	st         al, @(0x0, y)
     BBB:	E119      	ld         x, @0xFFE1 <register al>
     BBC:	6216      	ld         al, @(+0x62, x)
     BBD:	F819      	ld         x, @0xFFF8 <(scratchpad)>
     BBE:	E000      	**prefx    0xE0
     BBF:	1938      	add        x, #-0x1FE7
     BC0:	FF2B      	st         x, @(-0x1, y)
     BC1:	FF9F      	bsr        @(-0x1, y)
     BC2:	0014      	ld         al, #+0x0
     BC3:	001B      	ld         x, @(0x0, y)
     BC4:	6226      	st         al, @(+0x62, x)
     BC5:	020F      	leave      #+0x2

0x00000BC6 <___libgatt_lib_db_4600>:
     BC6:	010B      	enter      #+0x1
     BC7:	2A17      	ld         al, @(+0x2A, y)
     BC8:	2D13      	ld         ah, @(+0x2D, y)
     BC9:	0284      	cmp        al, #+0x2
     BCA:	07F8      	bcc        +0x7 <___libgatt_lib_db_4600+0xB:0xBD1[p]>
     BCB:	0114      	ld         al, #+0x1
     BCC:	3600      	**prefx    0x36
     BCD:	8A25      	st         al, @0x358A <patch_conn_chm_update>
     BCE:	E015      	ld         al, @0xFFE0 <register ah>
     BCF:	0400      	**prefx    0x4
     BD0:	529C      	bsr        +0x452 <___libgatt_lib_db_4620:0x1022[p]>
     BD1:	010F      	leave      #+0x1

0x00000BD2 <___libgatt_lib_db_4598>:
     BD2:	1E0B      	enter      #+0x1E
     BD3:	3817      	ld         al, @(+0x38, y)
     BD4:	1B27      	st         al, @(+0x1B, y)
     BD5:	5790      	smult      #+0x57
     BD6:	9700      	**prefx    0x97
     BD7:	6B34      	add        al, #-0x6895
     BD8:	1827      	st         al, @(+0x18, y)
     BD9:	0018      	ld         x, #+0x0
     BDA:	022B      	st         x, @(+0x2, y)
     BDB:	0014      	ld         al, #+0x0
     BDC:	181B      	ld         x, @(+0x18, y)
     BDD:	4B26      	st         al, @(+0x4B, x)
     BDE:	181A      	ld         x, @(+0x18, x)
     BDF:	1A2B      	st         x, @(+0x1A, y)
     BE0:	181B      	ld         x, @(+0x18, y)
     BE1:	111A      	ld         x, @(+0x11, x)
     BE2:	192B      	st         x, @(+0x19, y)
     BE3:	181B      	ld         x, @(+0x18, y)
     BE4:	4F16      	ld         al, @(+0x4F, x)
     BE5:	1226      	st         al, @(+0x12, x)
     BE6:	5016      	ld         al, @(+0x50, x)
     BE7:	1326      	st         al, @(+0x13, x)
     BE8:	3600      	**prefx    0x36
     BE9:	8B19      	ld         x, @0x358B <patch_conn_chm_update+0x1>
     BEA:	E315      	ld         al, @0xFFE3 <register uxl>
     BEB:	CB00      	**prefx    0xCB
     BEC:	F034      	add        al, #-0x3510
     BED:	F825      	st         al, @0xFFF8 <(scratchpad)>
     BEE:	181B      	ld         x, @(+0x18, y)
     BEF:	4D12      	ld         ah, @(+0x4D, x)
     BF0:	4E16      	ld         al, @(+0x4E, x)
     BF1:	0027      	st         al, @(0x0, y)
     BF2:	1B17      	ld         al, @(+0x1B, y)
     BF3:	F819      	ld         x, @0xFFF8 <(scratchpad)>
     BF4:	FF2B      	st         x, @(-0x1, y)
     BF5:	FF9F      	bsr        @(-0x1, y)
     BF6:	0014      	ld         al, #+0x0
     BF7:	181B      	ld         x, @(+0x18, y)
     BF8:	4D26      	st         al, @(+0x4D, x)
     BF9:	1816      	ld         al, @(+0x18, x)
     BFA:	02E0      	bra        +0x2 <___libgatt_lib_db_4598+0x2A:0xBFC[p]>
     BFB:	1937      	add        al, @(+0x19, y)
     BFC:	1A87      	cmp        al, @(+0x1A, y)
     BFD:	FEFC      	bcs        -0x2 <___libgatt_lib_db_4598+0x29:0xBFB[p]>
     BFE:	E111      	ld         ah, @0xFFE1 <register al>
     BFF:	1A53      	sub        ah, @(+0x1A, y)
     C00:	191B      	ld         x, @(+0x19, y)
     C01:	0078      	nadd       x, #+0x0
     C02:	F829      	st         x, @0xFFF8 <(scratchpad)>
     C03:	E019      	ld         x, @0xFFE0 <register ah>
     C04:	F831      	add        ah, @0xFFF8 <(scratchpad)>
     C05:	1917      	ld         al, @(+0x19, y)
     C06:	E035      	add        al, @0xFFE0 <register ah>
     C07:	1987      	cmp        al, @(+0x19, y)
     C08:	FBF8      	bcc        -0x5 <___libgatt_lib_db_4598+0x31:0xC03[p]>
     C09:	042B      	st         x, @(+0x4, y)
     C0A:	0214      	ld         al, #+0x2
     C0B:	0327      	st         al, @(+0x3, y)
     C0C:	181B      	ld         x, @(+0x18, y)
     C0D:	111A      	ld         x, @(+0x11, x)
     C0E:	052B      	st         x, @(+0x5, y)
     C0F:	181B      	ld         x, @(+0x18, y)
     C10:	121A      	ld         x, @(+0x12, x)
     C11:	062B      	st         x, @(+0x6, y)
     C12:	181B      	ld         x, @(+0x18, y)
     C13:	131A      	ld         x, @(+0x13, x)
     C14:	072B      	st         x, @(+0x7, y)
     C15:	1B17      	ld         al, @(+0x1B, y)
     C16:	0400      	**prefx    0x4
     C17:	0B9C      	bsr        +0x40B <___libgatt_lib_db_4620:0x1022[p]>
     C18:	3600      	**prefx    0x36
     C19:	8B15      	ld         al, @0x358B <patch_conn_chm_update+0x1>
     C1A:	E500      	**prefx    0xE5
     C1B:	A734      	add        al, #-0x1B59
     C1C:	FF27      	st         al, @(-0x1, y)
     C1D:	FF9F      	bsr        @(-0x1, y)
     C1E:	3600      	**prefx    0x36
     C1F:	8B19      	ld         x, @0x358B <patch_conn_chm_update+0x1>
     C20:	D200      	**prefx    0xD2
     C21:	1E38      	add        x, #-0x2DE2
     C22:	1B17      	ld         al, @(+0x1B, y)
     C23:	E411      	ld         ah, @0xFFE4 <register uy>
     C24:	0130      	add        ah, #+0x1
     C25:	FF2B      	st         x, @(-0x1, y)
     C26:	FF9F      	bsr        @(-0x1, y)
     C27:	3600      	**prefx    0x36
     C28:	8B15      	ld         al, @0x358B <patch_conn_chm_update+0x1>
     C29:	B900      	**prefx    0xB9
     C2A:	6034      	add        al, #-0x46A0
     C2B:	FF27      	st         al, @(-0x1, y)
     C2C:	FF9F      	bsr        @(-0x1, y)
     C2D:	0827      	st         al, @(+0x8, y)
     C2E:	181B      	ld         x, @(+0x18, y)
     C2F:	0C16      	ld         al, @(+0xC, x)
     C30:	0384      	cmp        al, #+0x3
     C31:	5E2C      	bcz        +0x5E <___libgatt_lib_db_4598+0xBD:0xC8F[p]>
     C32:	3600      	**prefx    0x36
     C33:	8B19      	ld         x, @0x358B <patch_conn_chm_update+0x1>
     C34:	D300      	**prefx    0xD3
     C35:	C938      	add        x, #-0x2D37
     C36:	3C14      	ld         al, #+0x3C
     C37:	0313      	ld         ah, @(+0x3, y)
     C38:	FF2B      	st         x, @(-0x1, y)
     C39:	FF9F      	bsr        @(-0x1, y)
     C3A:	3600      	**prefx    0x36
     C3B:	8B19      	ld         x, @0x358B <patch_conn_chm_update+0x1>
     C3C:	D300      	**prefx    0xD3
     C3D:	C938      	add        x, #-0x2D37
     C3E:	3D14      	ld         al, #+0x3D
     C3F:	0413      	ld         ah, @(+0x4, y)
     C40:	FF2B      	st         x, @(-0x1, y)
     C41:	FF9F      	bsr        @(-0x1, y)
     C42:	3600      	**prefx    0x36
     C43:	8B15      	ld         al, @0x358B <patch_conn_chm_update+0x1>
     C44:	E119      	ld         x, @0xFFE1 <register al>
     C45:	D300      	**prefx    0xD3
     C46:	C938      	add        x, #-0x2D37
     C47:	F829      	st         x, @0xFFF8 <(scratchpad)>
     C48:	181B      	ld         x, @(+0x18, y)
     C49:	1112      	ld         ah, @(+0x11, x)
     C4A:	3014      	ld         al, #+0x30
     C4B:	F819      	ld         x, @0xFFF8 <(scratchpad)>
     C4C:	FF2B      	st         x, @(-0x1, y)
     C4D:	FF9F      	bsr        @(-0x1, y)
     C4E:	3600      	**prefx    0x36
     C4F:	8B15      	ld         al, @0x358B <patch_conn_chm_update+0x1>
     C50:	E119      	ld         x, @0xFFE1 <register al>
     C51:	D300      	**prefx    0xD3
     C52:	C938      	add        x, #-0x2D37
     C53:	F829      	st         x, @0xFFF8 <(scratchpad)>
     C54:	181B      	ld         x, @(+0x18, y)
     C55:	1212      	ld         ah, @(+0x12, x)
     C56:	3214      	ld         al, #+0x32
     C57:	F819      	ld         x, @0xFFF8 <(scratchpad)>
     C58:	FF2B      	st         x, @(-0x1, y)
     C59:	FF9F      	bsr        @(-0x1, y)
     C5A:	3600      	**prefx    0x36
     C5B:	8B15      	ld         al, @0x358B <patch_conn_chm_update+0x1>
     C5C:	E119      	ld         x, @0xFFE1 <register al>
     C5D:	D300      	**prefx    0xD3
     C5E:	C938      	add        x, #-0x2D37
     C5F:	F829      	st         x, @0xFFF8 <(scratchpad)>
     C60:	181B      	ld         x, @(+0x18, y)
     C61:	1312      	ld         ah, @(+0x13, x)
     C62:	3114      	ld         al, #+0x31
     C63:	F819      	ld         x, @0xFFF8 <(scratchpad)>
     C64:	FF2B      	st         x, @(-0x1, y)
     C65:	FF9F      	bsr        @(-0x1, y)
     C66:	3600      	**prefx    0x36
     C67:	8B19      	ld         x, @0x358B <patch_conn_chm_update+0x1>
     C68:	D300      	**prefx    0xD3
     C69:	C938      	add        x, #-0x2D37
     C6A:	2E14      	ld         al, #+0x2E
     C6B:	0813      	ld         ah, @(+0x8, y)
     C6C:	FF2B      	st         x, @(-0x1, y)
     C6D:	FF9F      	bsr        @(-0x1, y)
     C6E:	3600      	**prefx    0x36
     C6F:	8B15      	ld         al, @0x358B <patch_conn_chm_update+0x1>
     C70:	1C27      	st         al, @(+0x1C, y)
     C71:	3600      	**prefx    0x36
     C72:	8B11      	ld         ah, @0x358B <patch_conn_chm_update+0x1>
     C73:	D400      	**prefx    0xD4
     C74:	C430      	add        ah, #-0x2C3C
     C75:	1B17      	ld         al, @(+0x1B, y)
     C76:	FF23      	st         ah, @(-0x1, y)
     C77:	FF9F      	bsr        @(-0x1, y)
     C78:	E111      	ld         ah, @0xFFE1 <register al>
     C79:	1C17      	ld         al, @(+0x1C, y)
     C7A:	D300      	**prefx    0xD3
     C7B:	C934      	add        al, #-0x2D37
     C7C:	1C27      	st         al, @(+0x1C, y)
     C7D:	5E14      	ld         al, #+0x5E
     C7E:	1C9F      	bsr        @(+0x1C, y)
     C7F:	3600      	**prefx    0x36
     C80:	8B11      	ld         ah, @0x358B <patch_conn_chm_update+0x1>
     C81:	D300      	**prefx    0xD3
     C82:	DE30      	add        ah, #-0x2D22
     C83:	5F14      	ld         al, #+0x5F
     C84:	FF23      	st         ah, @(-0x1, y)
     C85:	FF9F      	bsr        @(-0x1, y)
     C86:	E111      	ld         ah, @0xFFE1 <register al>
     C87:	3600      	**prefx    0x36
     C88:	8B19      	ld         x, @0x358B <patch_conn_chm_update+0x1>
     C89:	D300      	**prefx    0xD3
     C8A:	C938      	add        x, #-0x2D37
     C8B:	02B0      	or         ah, #+0x2
     C8C:	5F14      	ld         al, #+0x5F
     C8D:	FF2B      	st         x, @(-0x1, y)
     C8E:	FF9F      	bsr        @(-0x1, y)
     C8F:	3600      	**prefx    0x36
     C90:	8B11      	ld         ah, @0x358B <patch_conn_chm_update+0x1>
     C91:	D200      	**prefx    0xD2
     C92:	2630      	add        ah, #-0x2DDA
     C93:	E415      	ld         al, @0xFFE4 <register uy>
     C94:	0134      	add        al, #+0x1
     C95:	FF23      	st         ah, @(-0x1, y)
     C96:	FF9F      	bsr        @(-0x1, y)
     C97:	3600      	**prefx    0x36
     C98:	8B15      	ld         al, @0x358B <patch_conn_chm_update+0x1>
     C99:	E500      	**prefx    0xE5
     C9A:	B034      	add        al, #-0x1B50
     C9B:	FF27      	st         al, @(-0x1, y)
     C9C:	FF9F      	bsr        @(-0x1, y)
     C9D:	1B17      	ld         al, @(+0x1B, y)
     C9E:	0300      	**prefx    0x3
     C9F:	6D9C      	bsr        +0x36D <___libgatt_lib_db_4619:0x100C[p]>
     CA0:	E199      	tst        @0xFFE1 <register al>
     CA1:	FF00      	**prefx    0xFF
     CA2:	73F4      	beq        -0x8D <___libgatt_lib_db_4598+0x43:0xC15[p]>
     CA3:	3600      	**prefx    0x36
     CA4:	8B19      	ld         x, @0x358B <patch_conn_chm_update+0x1>
     CA5:	C900      	**prefx    0xC9
     CA6:	4238      	add        x, #-0x36BE
     CA7:	0014      	ld         al, #+0x0
     CA8:	0027      	st         al, @(0x0, y)
     CA9:	1B17      	ld         al, @(+0x1B, y)
     CAA:	E411      	ld         ah, @0xFFE4 <register uy>
     CAB:	0230      	add        ah, #+0x2
     CAC:	FF2B      	st         x, @(-0x1, y)
     CAD:	FF9F      	bsr        @(-0x1, y)
     CAE:	3B0F      	leave      #+0x3B
     CAF:	1E0F      	leave      #+0x1E

0x00000CB0 <.LFB13>:
     CB0:	160B      	enter      #+0x16
     CB1:	1427      	st         al, @(+0x14, y)
     CB2:	3600      	**prefx    0x36
     CB3:	8B19      	ld         x, @0x358B <patch_conn_chm_update+0x1>
     CB4:	B700      	**prefx    0xB7
     CB5:	E838      	add        x, #-0x4918
     CB6:	0B00      	**prefx    0xB
     CB7:	B614      	ld         al, #+0xAB6
     CB8:	0910      	ld         ah, #+0x9
     CB9:	FF2B      	st         x, @(-0x1, y)
     CBA:	FF9F      	bsr        @(-0x1, y)
     CBB:	1327      	st         al, @(+0x13, y)
     CBC:	1417      	ld         al, @(+0x14, y)
     CBD:	0300      	**prefx    0x3
     CBE:	649C      	bsr        +0x364 <___libgatt_lib_db_4620:0x1022[p]>
     CBF:	3600      	**prefx    0x36
     CC0:	8B19      	ld         x, @0x358B <patch_conn_chm_update+0x1>
     CC1:	D200      	**prefx    0xD2
     CC2:	1E38      	add        x, #-0x2DE2
     CC3:	1417      	ld         al, @(+0x14, y)
     CC4:	E411      	ld         ah, @0xFFE4 <register uy>
     CC5:	0230      	add        ah, #+0x2
     CC6:	FF2B      	st         x, @(-0x1, y)
     CC7:	FF9F      	bsr        @(-0x1, y)
     CC8:	3600      	**prefx    0x36
     CC9:	8B19      	ld         x, @0x358B <patch_conn_chm_update+0x1>
     CCA:	D200      	**prefx    0xD2
     CCB:	7D38      	add        x, #-0x2D83
     CCC:	E411      	ld         ah, @0xFFE4 <register uy>
     CCD:	0630      	add        ah, #+0x6
     CCE:	0023      	st         ah, @(0x0, y)
     CCF:	5514      	ld         al, #+0x55
     CD0:	FD30      	add        ah, #-0x3
     CD1:	FF2B      	st         x, @(-0x1, y)
     CD2:	FF9F      	bsr        @(-0x1, y)
     CD3:	3600      	**prefx    0x36
     CD4:	8B19      	ld         x, @0x358B <patch_conn_chm_update+0x1>
     CD5:	D200      	**prefx    0xD2
     CD6:	7D38      	add        x, #-0x2D83
     CD7:	E411      	ld         ah, @0xFFE4 <register uy>
     CD8:	0830      	add        ah, #+0x8
     CD9:	0023      	st         ah, @(0x0, y)
     CDA:	5314      	ld         al, #+0x53
     CDB:	FC30      	add        ah, #-0x4
     CDC:	FF2B      	st         x, @(-0x1, y)
     CDD:	FF9F      	bsr        @(-0x1, y)
     CDE:	3600      	**prefx    0x36
     CDF:	8B19      	ld         x, @0x358B <patch_conn_chm_update+0x1>
     CE0:	D200      	**prefx    0xD2
     CE1:	7D38      	add        x, #-0x2D83
     CE2:	E411      	ld         ah, @0xFFE4 <register uy>
     CE3:	0A30      	add        ah, #+0xA
     CE4:	0023      	st         ah, @(0x0, y)
     CE5:	3814      	ld         al, #+0x38
     CE6:	FB30      	add        ah, #-0x5
     CE7:	FF2B      	st         x, @(-0x1, y)
     CE8:	FF9F      	bsr        @(-0x1, y)
     CE9:	3600      	**prefx    0x36
     CEA:	8B11      	ld         ah, @0x358B <patch_conn_chm_update+0x1>
     CEB:	D300      	**prefx    0xD3
     CEC:	DE30      	add        ah, #-0x2D22
     CED:	0014      	ld         al, #+0x0
     CEE:	FF23      	st         ah, @(-0x1, y)
     CEF:	FF9F      	bsr        @(-0x1, y)
     CF0:	1227      	st         al, @(+0x12, y)
     CF1:	3600      	**prefx    0x36
     CF2:	8B11      	ld         ah, @0x358B <patch_conn_chm_update+0x1>
     CF3:	D200      	**prefx    0xD2
     CF4:	2630      	add        ah, #-0x2DDA
     CF5:	E415      	ld         al, @0xFFE4 <register uy>
     CF6:	0234      	add        al, #+0x2
     CF7:	FF23      	st         ah, @(-0x1, y)
     CF8:	FF9F      	bsr        @(-0x1, y)
     CF9:	0613      	ld         ah, @(+0x6, y)
     CFA:	0717      	ld         al, @(+0x7, y)
     CFB:	0127      	st         al, @(+0x1, y)
     CFC:	0023      	st         ah, @(0x0, y)
     CFD:	E415      	ld         al, @0xFFE4 <register uy>
     CFE:	0C34      	add        al, #+0xC
     CFF:	0313      	ld         ah, @(+0x3, y)
     D00:	FF00      	**prefx    0xFF
     D01:	A29C      	bsr        -0x15E <___libgatt_lib_db_4594:0xBA3[p]>
     D02:	0813      	ld         ah, @(+0x8, y)
     D03:	091B      	ld         x, @(+0x9, y)
     D04:	012B      	st         x, @(+0x1, y)
     D05:	0023      	st         ah, @(0x0, y)
     D06:	E415      	ld         al, @0xFFE4 <register uy>
     D07:	0F34      	add        al, #+0xF
     D08:	0413      	ld         ah, @(+0x4, y)
     D09:	FF00      	**prefx    0xFF
     D0A:	999C      	bsr        -0x167 <___libgatt_lib_db_4594:0xBA3[p]>
     D0B:	E411      	ld         ah, @0xFFE4 <register uy>
     D0C:	0C30      	add        ah, #+0xC
     D0D:	0023      	st         ah, @(0x0, y)
     D0E:	E415      	ld         al, @0xFFE4 <register uy>
     D0F:	0F34      	add        al, #+0xF
     D10:	E111      	ld         ah, @0xFFE1 <register al>
     D11:	0100      	**prefx    0x1
     D12:	8000      	**prefx    0x80
     D13:	479C      	bsr        +0x8047 <TimeSub48:0x8D5A[p]>
     D14:	109B      	tst        @(+0x10, y)
     D15:	03F0      	bne        +0x3 <L0+0x31:0xD18[p]>
     D16:	119B      	tst        @(+0x11, y)
     D17:	03F4      	beq        +0x3 <L0+0x33:0xD1A[p]>
     D18:	FF14      	ld         al, #-0x1
     D19:	0F27      	st         al, @(+0xF, y)
     D1A:	0F13      	ld         ah, @(+0xF, y)
     D1B:	131B      	ld         x, @(+0x13, y)
     D1C:	0222      	st         ah, @(+0x2, x)
     D1D:	F700      	**prefx    0xF7
     D1E:	B311      	ld         ah, @0xF6B3 <___libgatt_lib_db_2015>
     D1F:	E415      	ld         al, @0xFFE4 <register uy>
     D20:	0C34      	add        al, #+0xC
     D21:	0100      	**prefx    0x1
     D22:	8000      	**prefx    0x80
     D23:	2B9C      	bsr        +0x802B <TimeIncrement48:0x8D4E[p]>
     D24:	1317      	ld         al, @(+0x13, y)
     D25:	0634      	add        al, #+0x6
     D26:	3600      	**prefx    0x36
     D27:	BC18      	ld         x, #+0x35BC
     D28:	002B      	st         x, @(0x0, y)
     D29:	E411      	ld         ah, @0xFFE4 <register uy>
     D2A:	0C30      	add        ah, #+0xC
     D2B:	0100      	**prefx    0x1
     D2C:	8000      	**prefx    0x80
     D2D:	2D9C      	bsr        +0x802D <TimeSub48:0x8D5A[p]>
     D2E:	0A13      	ld         ah, @(+0xA, y)
     D2F:	0B17      	ld         al, @(+0xB, y)
     D30:	0127      	st         al, @(+0x1, y)
     D31:	0023      	st         ah, @(0x0, y)
     D32:	E415      	ld         al, @0xFFE4 <register uy>
     D33:	0F34      	add        al, #+0xF
     D34:	0513      	ld         ah, @(+0x5, y)
     D35:	FE00      	**prefx    0xFE
     D36:	6D9C      	bsr        -0x193 <___libgatt_lib_db_4594:0xBA3[p]>
     D37:	E419      	ld         x, @0xFFE4 <register uy>
     D38:	0C38      	add        x, #+0xC
     D39:	002B      	st         x, @(0x0, y)
     D3A:	E415      	ld         al, @0xFFE4 <register uy>
     D3B:	0F34      	add        al, #+0xF
     D3C:	E111      	ld         ah, @0xFFE1 <register al>
     D3D:	0100      	**prefx    0x1
     D3E:	8000      	**prefx    0x80
     D3F:	1B9C      	bsr        +0x801B <TimeSub48:0x8D5A[p]>
     D40:	1217      	ld         al, @(+0x12, y)
     D41:	0009      	**unsigned
     D42:	0500      	**prefx    0x5
     D43:	E290      	umult      #0x4E2
     D44:	0127      	st         al, @(+0x1, y)
     D45:	0023      	st         ah, @(0x0, y)
     D46:	E415      	ld         al, @0xFFE4 <register uy>
     D47:	0C34      	add        al, #+0xC
     D48:	0010      	ld         ah, #+0x0
     D49:	FE00      	**prefx    0xFE
     D4A:	599C      	bsr        -0x1A7 <___libgatt_lib_db_4594:0xBA3[p]>
     D4B:	1317      	ld         al, @(+0x13, y)
     D4C:	0334      	add        al, #+0x3
     D4D:	E419      	ld         x, @0xFFE4 <register uy>
     D4E:	0C38      	add        x, #+0xC
     D4F:	002B      	st         x, @(0x0, y)
     D50:	E411      	ld         ah, @0xFFE4 <register uy>
     D51:	0F30      	add        ah, #+0xF
     D52:	0100      	**prefx    0x1
     D53:	8000      	**prefx    0x80
     D54:	069C      	bsr        +0x8006 <TimeSub48:0x8D5A[p]>
     D55:	3600      	**prefx    0x36
     D56:	8B11      	ld         ah, @0x358B <patch_conn_chm_update+0x1>
     D57:	B900      	**prefx    0xB9
     D58:	AF30      	add        ah, #-0x4751
     D59:	1417      	ld         al, @(+0x14, y)
     D5A:	FF23      	st         ah, @(-0x1, y)
     D5B:	FF9F      	bsr        @(-0x1, y)
     D5C:	131B      	ld         x, @(+0x13, y)
     D5D:	0126      	st         al, @(+0x1, x)
     D5E:	3600      	**prefx    0x36
     D5F:	8B11      	ld         ah, @0x358B <patch_conn_chm_update+0x1>
     D60:	B600      	**prefx    0xB6
     D61:	2030      	add        ah, #-0x49E0
     D62:	E315      	ld         al, @0xFFE3 <register uxl>
     D63:	FF23      	st         ah, @(-0x1, y)
     D64:	FF9F      	bsr        @(-0x1, y)
     D65:	160F      	leave      #+0x16

0x00000D66 <.LFB6>:
     D66:	0E0B      	enter      #+0xE
     D67:	0A27      	st         al, @(+0xA, y)
     D68:	0B23      	st         ah, @(+0xB, y)
     D69:	E015      	ld         al, @0xFFE0 <register ah>
     D6A:	4000      	**prefx    0x40
     D6B:	00C4      	and        al, #0x4000
     D6C:	5DF4      	beq        +0x5D <.LFB6+0x63:0xDC9[p]>
     D6D:	0A1B      	ld         x, @(+0xA, y)
     D6E:	9700      	**prefx    0x97
     D6F:	5516      	ld         al, @(-0x68AB, x)
     D70:	0684      	cmp        al, #+0x6
     D71:	54F0      	bne        +0x54 <.LFB6+0x5F:0xDC5[p]>
     D72:	E315      	ld         al, @0xFFE3 <register uxl>
     D73:	5790      	smult      #+0x57
     D74:	E119      	ld         x, @0xFFE1 <register al>
     D75:	9700      	**prefx    0x97
     D76:	6B38      	add        x, #-0x6895
     D77:	5516      	ld         al, @(+0x55, x)
     D78:	0384      	cmp        al, #+0x3
     D79:	03F0      	bne        +0x3 <.LFB6+0x16:0xD7C[p]>
     D7A:	0010      	ld         ah, #+0x0
     D7B:	5622      	st         ah, @(+0x56, x)
     D7C:	5516      	ld         al, @(+0x55, x)
     D7D:	0284      	cmp        al, #+0x2
     D7E:	47F0      	bne        +0x47 <.LFB6+0x5F:0xDC5[p]>
     D7F:	9700      	**prefx    0x97
     D80:	5799      	tst        @0x9757 <le_device+0x2>
     D81:	27F0      	bne        +0x27 <.LFB6+0x42:0xDA8[p]>
     D82:	3600      	**prefx    0x36
     D83:	8B19      	ld         x, @0x358B <patch_conn_chm_update+0x1>
     D84:	D200      	**prefx    0xD2
     D85:	1E38      	add        x, #-0x2DE2
     D86:	0A17      	ld         al, @(+0xA, y)
     D87:	E411      	ld         ah, @0xFFE4 <register uy>
     D88:	0130      	add        ah, #+0x1
     D89:	FF2B      	st         x, @(-0x1, y)
     D8A:	FF9F      	bsr        @(-0x1, y)
     D8B:	3600      	**prefx    0x36
     D8C:	8B11      	ld         ah, @0x358B <patch_conn_chm_update+0x1>
     D8D:	D300      	**prefx    0xD3
     D8E:	DE30      	add        ah, #-0x2D22
     D8F:	1D14      	ld         al, #+0x1D
     D90:	FF23      	st         ah, @(-0x1, y)
     D91:	FF9F      	bsr        @(-0x1, y)
     D92:	0727      	st         al, @(+0x7, y)
     D93:	3600      	**prefx    0x36
     D94:	8B11      	ld         ah, @0x358B <patch_conn_chm_update+0x1>
     D95:	D200      	**prefx    0xD2
     D96:	2630      	add        ah, #-0x2DDA
     D97:	E415      	ld         al, @0xFFE4 <register uy>
     D98:	0134      	add        al, #+0x1
     D99:	FF23      	st         ah, @(-0x1, y)
     D9A:	FF9F      	bsr        @(-0x1, y)
     D9B:	0713      	ld         ah, @(+0x7, y)
     D9C:	07C0      	and        ah, #0x7
     D9D:	0680      	cmp        ah, #+0x6
     D9E:	06F0      	bne        +0x6 <.LFB6+0x3E:0xDA4[p]>
     D9F:	4B00      	**prefx    0x4B
     DA0:	4B14      	ld         al, #+0x4B4B
     DA1:	F600      	**prefx    0xF6
     DA2:	4F25      	st         al, @0xF64F <___libgatt_lib_db_1805>
     DA3:	22E0      	bra        +0x22 <.LFB6+0x5F:0xDC5[p]>
     DA4:	7F00      	**prefx    0x7F
     DA5:	4A18      	ld         x, #+0x7F4A
     DA6:	F600      	**prefx    0xF6
     DA7:	4F29      	st         x, @0xF64F <___libgatt_lib_db_1805>
     DA8:	3600      	**prefx    0x36
     DA9:	8B19      	ld         x, @0x358B <patch_conn_chm_update+0x1>
     DAA:	B700      	**prefx    0xB7
     DAB:	E838      	add        x, #-0x4918
     DAC:	0B00      	**prefx    0xB
     DAD:	F814      	ld         al, #+0xAF8
     DAE:	0310      	ld         ah, #+0x3
     DAF:	FF2B      	st         x, @(-0x1, y)
     DB0:	FF9F      	bsr        @(-0x1, y)
     DB1:	0827      	st         al, @(+0x8, y)
     DB2:	13F4      	beq        +0x13 <.LFB6+0x5F:0xDC5[p]>
     DB3:	3600      	**prefx    0x36
     DB4:	8B11      	ld         ah, @0x358B <patch_conn_chm_update+0x1>
     DB5:	B900      	**prefx    0xB9
     DB6:	AF30      	add        ah, #-0x4751
     DB7:	0A17      	ld         al, @(+0xA, y)
     DB8:	FF23      	st         ah, @(-0x1, y)
     DB9:	FF9F      	bsr        @(-0x1, y)
     DBA:	081B      	ld         x, @(+0x8, y)
     DBB:	0126      	st         al, @(+0x1, x)
     DBC:	0210      	ld         ah, #+0x2
     DBD:	0222      	st         ah, @(+0x2, x)
     DBE:	3600      	**prefx    0x36
     DBF:	8B11      	ld         ah, @0x358B <patch_conn_chm_update+0x1>
     DC0:	B600      	**prefx    0xB6
     DC1:	2030      	add        ah, #-0x49E0
     DC2:	E315      	ld         al, @0xFFE3 <register uxl>
     DC3:	FF23      	st         ah, @(-0x1, y)
     DC4:	FF9F      	bsr        @(-0x1, y)
     DC5:	0B13      	ld         ah, @(+0xB, y)
     DC6:	C000      	**prefx    0xC0
     DC7:	FFC0      	and        ah, #0xBFFF
     DC8:	0B23      	st         ah, @(+0xB, y)
     DC9:	0B17      	ld         al, @(+0xB, y)
     DCA:	04C4      	and        al, #0x4
     DCB:	4CF4      	beq        +0x4C <.LFB6+0xB1:0xE17[p]>
     DCC:	0B17      	ld         al, @(+0xB, y)
     DCD:	40C4      	and        al, #0x40
     DCE:	49F0      	bne        +0x49 <.LFB6+0xB1:0xE17[p]>
     DCF:	3600      	**prefx    0x36
     DD0:	8799      	tst        @0x3587 <patch_pending>
     DD1:	04F0      	bne        +0x4 <.LFB6+0x6F:0xDD5[p]>
     DD2:	3600      	**prefx    0x36
     DD3:	8899      	tst        @0x3588 <patch_rx_timing_report>
     DD4:	43F4      	beq        +0x43 <.LFB6+0xB1:0xE17[p]>
     DD5:	0A1B      	ld         x, @(+0xA, y)
     DD6:	9700      	**prefx    0x97
     DD7:	5516      	ld         al, @(-0x68AB, x)
     DD8:	0684      	cmp        al, #+0x6
     DD9:	03F4      	beq        +0x3 <.LFB6+0x76:0xDDC[p]>
     DDA:	0484      	cmp        al, #+0x4
     DDB:	3CF0      	bne        +0x3C <.LFB6+0xB1:0xE17[p]>
     DDC:	3600      	**prefx    0x36
     DDD:	8B11      	ld         ah, @0x358B <patch_conn_chm_update+0x1>
     DDE:	B600      	**prefx    0xB6
     DDF:	9730      	add        ah, #-0x4A69
     DE0:	E415      	ld         al, @0xFFE4 <register uy>
     DE1:	0234      	add        al, #+0x2
     DE2:	FF23      	st         ah, @(-0x1, y)
     DE3:	FF9F      	bsr        @(-0x1, y)
     DE4:	3600      	**prefx    0x36
     DE5:	8B11      	ld         ah, @0x358B <patch_conn_chm_update+0x1>
     DE6:	0423      	st         ah, @(+0x4, y)
     DE7:	3600      	**prefx    0x36
     DE8:	8B11      	ld         ah, @0x358B <patch_conn_chm_update+0x1>
     DE9:	D400      	**prefx    0xD4
     DEA:	F230      	add        ah, #-0x2C0E
     DEB:	0A17      	ld         al, @(+0xA, y)
     DEC:	FF23      	st         ah, @(-0x1, y)
     DED:	FF9F      	bsr        @(-0x1, y)
     DEE:	0413      	ld         ah, @(+0x4, y)
     DEF:	B600      	**prefx    0xB6
     DF0:	B930      	add        ah, #-0x4A47
     DF1:	0423      	st         ah, @(+0x4, y)
     DF2:	049F      	bsr        @(+0x4, y)
     DF3:	0627      	st         al, @(+0x6, y)
     DF4:	3600      	**prefx    0x36
     DF5:	8B11      	ld         ah, @0x358B <patch_conn_chm_update+0x1>
     DF6:	D400      	**prefx    0xD4
     DF7:	A630      	add        ah, #-0x2C5A
     DF8:	0A17      	ld         al, @(+0xA, y)
     DF9:	FF23      	st         ah, @(-0x1, y)
     DFA:	FF9F      	bsr        @(-0x1, y)
     DFB:	0637      	add        al, @(+0x6, y)
     DFC:	E119      	ld         x, @0xFFE1 <register al>
     DFD:	0012      	ld         ah, @(0x0, x)
     DFE:	03C0      	and        ah, #0x3
     DFF:	0523      	st         ah, @(+0x5, y)
     E00:	3600      	**prefx    0x36
     E01:	8B11      	ld         ah, @0x358B <patch_conn_chm_update+0x1>
     E02:	B600      	**prefx    0xB6
     E03:	A030      	add        ah, #-0x4A60
     E04:	E415      	ld         al, @0xFFE4 <register uy>
     E05:	0234      	add        al, #+0x2
     E06:	FF23      	st         ah, @(-0x1, y)
     E07:	FF9F      	bsr        @(-0x1, y)
     E08:	0513      	ld         ah, @(+0x5, y)
     E09:	0280      	cmp        ah, #+0x2
     E0A:	0DF0      	bne        +0xD <.LFB6+0xB1:0xE17[p]>
     E0B:	3600      	**prefx    0x36
     E0C:	8799      	tst        @0x3587 <patch_pending>
     E0D:	04F4      	beq        +0x4 <.LFB6+0xAB:0xE11[p]>
     E0E:	0A17      	ld         al, @(+0xA, y)
     E0F:	0100      	**prefx    0x1
     E10:	C69C      	bsr        +0xC6 <___libgatt_lib_db_4608:0xED6[p]>
     E11:	3600      	**prefx    0x36
     E12:	8899      	tst        @0x3588 <patch_rx_timing_report>
     E13:	04F4      	beq        +0x4 <.LFB6+0xB1:0xE17[p]>
     E14:	0A17      	ld         al, @(+0xA, y)
     E15:	FF00      	**prefx    0xFF
     E16:	9A9C      	bsr        -0x166 <.LFB13:0xCB0[p]>
     E17:	3600      	**prefx    0x36
     E18:	8B19      	ld         x, @0x358B <patch_conn_chm_update+0x1>
     E19:	C300      	**prefx    0xC3
     E1A:	5138      	add        x, #-0x3CAF
     E1B:	0A17      	ld         al, @(+0xA, y)
     E1C:	0B13      	ld         ah, @(+0xB, y)
     E1D:	FF2B      	st         x, @(-0x1, y)
     E1E:	FF9F      	bsr        @(-0x1, y)
     E1F:	3600      	**prefx    0x36
     E20:	8A99      	tst        @0x358A <patch_conn_chm_update>
     E21:	3BF4      	beq        +0x3B <.LFB6+0xF6:0xE5C[p]>
     E22:	0A17      	ld         al, @(+0xA, y)
     E23:	5790      	smult      #+0x57
     E24:	9700      	**prefx    0x97
     E25:	5534      	add        al, #-0x68AB
     E26:	0C27      	st         al, @(+0xC, y)
     E27:	E119      	ld         x, @0xFFE1 <register al>
     E28:	2216      	ld         al, @(+0x22, x)
     E29:	0684      	cmp        al, #+0x6
     E2A:	2FF0      	bne        +0x2F <.LFB6+0xF3:0xE59[p]>
     E2B:	3600      	**prefx    0x36
     E2C:	8B19      	ld         x, @0x358B <patch_conn_chm_update+0x1>
     E2D:	D200      	**prefx    0xD2
     E2E:	1E38      	add        x, #-0x2DE2
     E2F:	0A17      	ld         al, @(+0xA, y)
     E30:	E411      	ld         ah, @0xFFE4 <register uy>
     E31:	0130      	add        ah, #+0x1
     E32:	FF2B      	st         x, @(-0x1, y)
     E33:	FF9F      	bsr        @(-0x1, y)
     E34:	3600      	**prefx    0x36
     E35:	8B11      	ld         ah, @0x358B <patch_conn_chm_update+0x1>
     E36:	D300      	**prefx    0xD3
     E37:	B430      	add        ah, #-0x2D4C
     E38:	3E14      	ld         al, #+0x3E
     E39:	FF23      	st         ah, @(-0x1, y)
     E3A:	FF9F      	bsr        @(-0x1, y)
     E3B:	FB21      	st         ah, @0xFFFB <(scratchpad)>
     E3C:	FA25      	st         al, @0xFFFA <(scratchpad)>
     E3D:	3600      	**prefx    0x36
     E3E:	8B11      	ld         ah, @0x358B <patch_conn_chm_update+0x1>
     E3F:	E015      	ld         al, @0xFFE0 <register ah>
     E40:	D300      	**prefx    0xD3
     E41:	9734      	add        al, #-0x2D69
     E42:	FE27      	st         al, @(-0x2, y)
     E43:	0114      	ld         al, #+0x1
     E44:	0C1B      	ld         x, @(+0xC, y)
     E45:	61A2      	asl        @(+0x61, x)
     E46:	E111      	ld         ah, @0xFFE1 <register al>
     E47:	10A4      	asr        #0x10
     E48:	F925      	st         al, @0xFFF9 <(scratchpad)>
     E49:	F821      	st         ah, @0xFFF8 <(scratchpad)>
     E4A:	FA15      	ld         al, @0xFFFA <(scratchpad)>
     E4B:	F9B5      	or         al, @0xFFF9 <(scratchpad)>
     E4C:	FB11      	ld         ah, @0xFFFB <(scratchpad)>
     E4D:	F8B1      	or         ah, @0xFFF8 <(scratchpad)>
     E4E:	0027      	st         al, @(0x0, y)
     E4F:	3E14      	ld         al, #+0x3E
     E50:	FE9F      	bsr        @(-0x2, y)
     E51:	3600      	**prefx    0x36
     E52:	8B11      	ld         ah, @0x358B <patch_conn_chm_update+0x1>
     E53:	D200      	**prefx    0xD2
     E54:	2630      	add        ah, #-0x2DDA
     E55:	E415      	ld         al, @0xFFE4 <register uy>
     E56:	0134      	add        al, #+0x1
     E57:	FF23      	st         ah, @(-0x1, y)
     E58:	FF9F      	bsr        @(-0x1, y)
     E59:	0010      	ld         ah, #+0x0
     E5A:	3600      	**prefx    0x36
     E5B:	8A21      	st         ah, @0x358A <patch_conn_chm_update>
     E5C:	0B9B      	tst        @(+0xB, y)
     E5D:	34E8      	bpl        +0x34 <.LFB6+0x12B:0xE91[p]>
     E5E:	0A1B      	ld         x, @(+0xA, y)
     E5F:	9700      	**prefx    0x97
     E60:	559A      	tst        @(-0x68AB, x)
     E61:	30F4      	beq        +0x30 <.LFB6+0x12B:0xE91[p]>
     E62:	0014      	ld         al, #+0x0
     E63:	0200      	**prefx    0x2
     E64:	BE9C      	bsr        +0x1BE <___libgatt_lib_db_4620:0x1022[p]>
     E65:	3600      	**prefx    0x36
     E66:	8B19      	ld         x, @0x358B <patch_conn_chm_update+0x1>
     E67:	D200      	**prefx    0xD2
     E68:	1E38      	add        x, #-0x2DE2
     E69:	0A17      	ld         al, @(+0xA, y)
     E6A:	E411      	ld         ah, @0xFFE4 <register uy>
     E6B:	0130      	add        ah, #+0x1
     E6C:	FF2B      	st         x, @(-0x1, y)
     E6D:	FF9F      	bsr        @(-0x1, y)
     E6E:	3600      	**prefx    0x36
     E6F:	8B11      	ld         ah, @0x358B <patch_conn_chm_update+0x1>
     E70:	D300      	**prefx    0xD3
     E71:	DE30      	add        ah, #-0x2D22
     E72:	2514      	ld         al, #+0x25
     E73:	FF23      	st         ah, @(-0x1, y)
     E74:	FF9F      	bsr        @(-0x1, y)
     E75:	0927      	st         al, @(+0x9, y)
     E76:	3600      	**prefx    0x36
     E77:	8B11      	ld         ah, @0x358B <patch_conn_chm_update+0x1>
     E78:	D200      	**prefx    0xD2
     E79:	2630      	add        ah, #-0x2DDA
     E7A:	E415      	ld         al, @0xFFE4 <register uy>
     E7B:	0134      	add        al, #+0x1
     E7C:	FF23      	st         ah, @(-0x1, y)
     E7D:	FF9F      	bsr        @(-0x1, y)
     E7E:	0913      	ld         ah, @(+0x9, y)
     E7F:	0100      	**prefx    0x1
     E80:	CA80      	cmp        ah, #+0xCA
     E81:	10F0      	bne        +0x10 <.LFB6+0x12B:0xE91[p]>
     E82:	F100      	**prefx    0xF1
     E83:	1215      	ld         al, @0xF112 <___libgatt_lib_db_1698>
     E84:	04B4      	or         al, #+0x4
     E85:	F100      	**prefx    0xF1
     E86:	1225      	st         al, @0xF112 <___libgatt_lib_db_1698>
     E87:	0014      	ld         al, #+0x0
     E88:	0000      	**prefx    0x0
     E89:	0134      	add        al, #+0x1
     E8A:	6484      	cmp        al, #+0x64
     E8B:	FDF0      	bne        -0x3 <.LFB6+0x122:0xE88[p]>
     E8C:	F100      	**prefx    0xF1
     E8D:	1215      	ld         al, @0xF112 <___libgatt_lib_db_1698>
     E8E:	FBC4      	and        al, #0xFFFB
     E8F:	F100      	**prefx    0xF1
     E90:	1225      	st         al, @0xF112 <___libgatt_lib_db_1698>
     E91:	0E0F      	leave      #+0xE

0x00000E92 <___libgatt_lib_db_4550>:
     E92:	020B      	enter      #+0x2
     E93:	F600      	**prefx    0xF6
     E94:	4C15      	ld         al, @0xF64C <___libgatt_lib_db_1778>
     E95:	0027      	st         al, @(0x0, y)
     E96:	F600      	**prefx    0xF6
     E97:	4925      	st         al, @0xF649 <___libgatt_lib_db_1779>
     E98:	E111      	ld         ah, @0xFFE1 <register al>
     E99:	B7C0      	and        ah, #0xFFB7
     E9A:	0114      	ld         al, #+0x1
     E9B:	FF00      	**prefx    0xFF
     E9C:	CA9C      	bsr        -0x136 <.LFB6:0xD66[p]>
     E9D:	0017      	ld         al, @(0x0, y)
     E9E:	08C4      	and        al, #0x8
     E9F:	08F4      	beq        +0x8 <___libgatt_lib_db_4550+0x15:0xEA7[p]>
     EA0:	0114      	ld         al, #+0x1
     EA1:	0200      	**prefx    0x2
     EA2:	809C      	bsr        +0x180 <___libgatt_lib_db_4620:0x1022[p]>
     EA3:	0114      	ld         al, #+0x1
     EA4:	0810      	ld         ah, #+0x8
     EA5:	FF00      	**prefx    0xFF
     EA6:	C09C      	bsr        -0x140 <.LFB6:0xD66[p]>
     EA7:	0017      	ld         al, @(0x0, y)
     EA8:	40C4      	and        al, #0x40
     EA9:	04F4      	beq        +0x4 <___libgatt_lib_db_4550+0x1B:0xEAD[p]>
     EAA:	0114      	ld         al, #+0x1
     EAB:	FD00      	**prefx    0xFD
     EAC:	C39C      	bsr        -0x33D <.LFB9:0xB6F[p]>
     EAD:	020F      	leave      #+0x2

0x00000EAE <___libgatt_lib_db_4549>:
     EAE:	020B      	enter      #+0x2
     EAF:	F600      	**prefx    0xF6
     EB0:	4B15      	ld         al, @0xF64B <___libgatt_lib_db_1776>
     EB1:	0027      	st         al, @(0x0, y)
     EB2:	F600      	**prefx    0xF6
     EB3:	4825      	st         al, @0xF648 <___libgatt_lib_db_1777>
     EB4:	E111      	ld         ah, @0xFFE1 <register al>
     EB5:	B7C0      	and        ah, #0xFFB7
     EB6:	0014      	ld         al, #+0x0
     EB7:	FF00      	**prefx    0xFF
     EB8:	AE9C      	bsr        -0x152 <.LFB6:0xD66[p]>
     EB9:	0017      	ld         al, @(0x0, y)
     EBA:	08C4      	and        al, #0x8
     EBB:	08F4      	beq        +0x8 <L0+0x3:0xEC3[p]>
     EBC:	0014      	ld         al, #+0x0
     EBD:	0100      	**prefx    0x1
     EBE:	649C      	bsr        +0x164 <___libgatt_lib_db_4620:0x1022[p]>
     EBF:	0014      	ld         al, #+0x0
     EC0:	0810      	ld         ah, #+0x8
     EC1:	FF00      	**prefx    0xFF
     EC2:	A49C      	bsr        -0x15C <.LFB6:0xD66[p]>
     EC3:	0017      	ld         al, @(0x0, y)
     EC4:	40C4      	and        al, #0x40
     EC5:	04F4      	beq        +0x4 <L0+0x9:0xEC9[p]>
     EC6:	0014      	ld         al, #+0x0
     EC7:	FD00      	**prefx    0xFD
     EC8:	A79C      	bsr        -0x359 <.LFB9:0xB6F[p]>
     EC9:	020F      	leave      #+0x2

0x00000ECA <___libgatt_lib_db_4609>:
     ECA:	020B      	enter      #+0x2
     ECB:	0617      	ld         al, @(+0x6, y)
     ECC:	0027      	st         al, @(0x0, y)
     ECD:	E119      	ld         x, @0xFFE1 <register al>
     ECE:	0016      	ld         al, @(0x0, x)
     ECF:	0C84      	cmp        al, #+0xC
     ED0:	05F0      	bne        +0x5 <___libgatt_lib_db_4609+0xB:0xED5[p]>
     ED1:	0200      	**prefx    0x2
     ED2:	559C      	bsr        +0x255 <IdGetLlVerBtle:0x1127[p]>
     ED3:	001B      	ld         x, @(0x0, y)
     ED4:	0126      	st         al, @(+0x1, x)
     ED5:	020F      	leave      #+0x2

0x00000ED6 <___libgatt_lib_db_4608>:
     ED6:	020B      	enter      #+0x2
     ED7:	0027      	st         al, @(0x0, y)
     ED8:	0100      	**prefx    0x1
     ED9:	C500      	**prefx    0xC5
     EDA:	EA9C      	bsr        +0xC4EA <___libgatt_lib_db_4148:0xD3C4[p]>
     EDB:	E111      	ld         ah, @0xFFE1 <register al>
     EDC:	3600      	**prefx    0x36
     EDD:	8731      	add        ah, @0x3587 <patch_pending>
     EDE:	7FC0      	and        ah, #0x7F
     EDF:	0017      	ld         al, @(0x0, y)
     EE0:	0100      	**prefx    0x1
     EE1:	C500      	**prefx    0xC5
     EE2:	E99C      	bsr        +0xC4E9 <___libgatt_lib_db_4152:0xD3CB[p]>
     EE3:	0014      	ld         al, #+0x0
     EE4:	3600      	**prefx    0x36
     EE5:	8725      	st         al, @0x3587 <patch_pending>
     EE6:	020F      	leave      #+0x2

0x00000EE7 <___libgatt_lib_db_4610>:
     EE7:	1C0B      	enter      #+0x1C
     EE8:	2E17      	ld         al, @(+0x2E, y)
     EE9:	1727      	st         al, @(+0x17, y)
     EEA:	2D1B      	ld         x, @(+0x2D, y)
     EEB:	192B      	st         x, @(+0x19, y)
     EEC:	5790      	smult      #+0x57
     EED:	1A27      	st         al, @(+0x1A, y)
     EEE:	9700      	**prefx    0x97
     EEF:	6B34      	add        al, #-0x6895
     EF0:	1027      	st         al, @(+0x10, y)
     EF1:	3600      	**prefx    0x36
     EF2:	8799      	tst        @0x3587 <patch_pending>
     EF3:	58F0      	bne        +0x58 <___libgatt_lib_db_4610+0x64:0xF4B[p]>
     EF4:	191B      	ld         x, @(+0x19, y)
     EF5:	0138      	add        x, #+0x1
     EF6:	162B      	st         x, @(+0x16, y)
     EF7:	191B      	ld         x, @(+0x19, y)
     EF8:	0112      	ld         ah, @(+0x1, x)
     EF9:	0009      	**unsigned
     EFA:	08A4      	lsr        #0x8
     EFB:	E015      	ld         al, @0xFFE0 <register ah>
     EFC:	1FC4      	and        al, #0x1F
     EFD:	1527      	st         al, @(+0x15, y)
     EFE:	0234      	add        al, #+0x2
     EFF:	0D27      	st         al, @(+0xD, y)
     F00:	1A1B      	ld         x, @(+0x1A, y)
     F01:	9700      	**prefx    0x97
     F02:	7716      	ld         al, @(-0x6889, x)
     F03:	0484      	cmp        al, #+0x4
     F04:	04F8      	bcc        +0x4 <___libgatt_lib_db_4610+0x21:0xF08[p]>
     F05:	0D17      	ld         al, @(+0xD, y)
     F06:	1427      	st         al, @(+0x14, y)
     F07:	04E0      	bra        +0x4 <___libgatt_lib_db_4610+0x24:0xF0B[p]>
     F08:	151B      	ld         x, @(+0x15, y)
     F09:	0638      	add        x, #+0x6
     F0A:	142B      	st         x, @(+0x14, y)
     F0B:	1717      	ld         al, @(+0x17, y)
     F0C:	0100      	**prefx    0x1
     F0D:	C500      	**prefx    0xC5
     F0E:	AF9C      	bsr        +0xC4AF <___libgatt_lib_db_4149:0xD3BD[p]>
     F0F:	1827      	st         al, @(+0x18, y)
     F10:	1717      	ld         al, @(+0x17, y)
     F11:	0100      	**prefx    0x1
     F12:	C500      	**prefx    0xC5
     F13:	B19C      	bsr        +0xC4B1 <___libgatt_lib_db_4148:0xD3C4[p]>
     F14:	181B      	ld         x, @(+0x18, y)
     F15:	E159      	sub        x, @0xFFE1 <register al>
     F16:	E315      	ld         al, @0xFFE3 <register uxl>
     F17:	FF38      	add        x, #-0x1
     F18:	132B      	st         x, @(+0x13, y)
     F19:	03E8      	bpl        +0x3 <___libgatt_lib_db_4610+0x35:0xF1C[p]>
     F1A:	7F34      	add        al, #+0x7F
     F1B:	1327      	st         al, @(+0x13, y)
     F1C:	1317      	ld         al, @(+0x13, y)
     F1D:	1487      	cmp        al, @(+0x14, y)
     F1E:	2DE4      	blt        +0x2D <___libgatt_lib_db_4610+0x64:0xF4B[p]>
     F1F:	161B      	ld         x, @(+0x16, y)
     F20:	009A      	tst        @(0x0, x)
     F21:	3AE8      	bpl        +0x3A <___libgatt_lib_db_4610+0x74:0xF5B[p]>
     F22:	3700      	**prefx    0x37
     F23:	DE19      	ld         x, @0x36DE <___libgatt_lib_db_4611>
     F24:	0014      	ld         al, #+0x0
     F25:	0F27      	st         al, @(+0xF, y)
     F26:	0F17      	ld         al, @(+0xF, y)
     F27:	0390      	smult      #+0x3
     F28:	F825      	st         al, @0xFFF8 <(scratchpad)>
     F29:	0016      	ld         al, @(0x0, x)
     F2A:	0284      	cmp        al, #+0x2
     F2B:	1AF0      	bne        +0x1A <___libgatt_lib_db_4610+0x5E:0xF45[p]>
     F2C:	1717      	ld         al, @(+0x17, y)
     F2D:	0026      	st         al, @(0x0, x)
     F2E:	3700      	**prefx    0x37
     F2F:	DE11      	ld         ah, @0x36DE <___libgatt_lib_db_4611>
     F30:	F831      	add        ah, @0xFFF8 <(scratchpad)>
     F31:	161B      	ld         x, @(+0x16, y)
     F32:	0116      	ld         al, @(+0x1, x)
     F33:	0100      	**prefx    0x1
     F34:	FFC4      	and        al, #0xFF
     F35:	E019      	ld         x, @0xFFE0 <register ah>
     F36:	0126      	st         al, @(+0x1, x)
     F37:	3700      	**prefx    0x37
     F38:	DE19      	ld         x, @0x36DE <___libgatt_lib_db_4611>
     F39:	F839      	add        x, @0xFFF8 <(scratchpad)>
     F3A:	0C2B      	st         x, @(+0xC, y)
     F3B:	1717      	ld         al, @(+0x17, y)
     F3C:	0100      	**prefx    0x1
     F3D:	C500      	**prefx    0xC5
     F3E:	869C      	bsr        +0xC486 <___libgatt_lib_db_4148:0xD3C4[p]>
     F3F:	0C1B      	ld         x, @(+0xC, y)
     F40:	0226      	st         al, @(+0x2, x)
     F41:	0F17      	ld         al, @(+0xF, y)
     F42:	0484      	cmp        al, #+0x4
     F43:	13FC      	bcs        +0x13 <___libgatt_lib_db_4610+0x6F:0xF56[p]>
     F44:	07E0      	bra        +0x7 <___libgatt_lib_db_4610+0x64:0xF4B[p]>
     F45:	0F17      	ld         al, @(+0xF, y)
     F46:	0134      	add        al, #+0x1
     F47:	0F27      	st         al, @(+0xF, y)
     F48:	0338      	add        x, #+0x3
     F49:	0484      	cmp        al, #+0x4
     F4A:	DCF0      	bne        -0x24 <___libgatt_lib_db_4610+0x3F:0xF26[p]>
     F4B:	0114      	ld         al, #+0x1
     F4C:	1A1B      	ld         x, @(+0x1A, y)
     F4D:	9800      	**prefx    0x98
     F4E:	B226      	st         al, @(-0x684E, x)
     F4F:	0418      	ld         x, #+0x4
     F50:	282B      	st         x, @(+0x28, y)
     F51:	C900      	**prefx    0xC9
     F52:	0814      	ld         al, #-0x36F8
     F53:	1B27      	st         al, @(+0x1B, y)
     F54:	0100      	**prefx    0x1
     F55:	B6E0      	bra        +0xB6 <___libgatt_lib_db_1085+0xB:0x100B[p]>
     F56:	191B      	ld         x, @(+0x19, y)
     F57:	0116      	ld         al, @(+0x1, x)
     F58:	8000      	**prefx    0x80
     F59:	FFC4      	and        al, #0x7FFF
     F5A:	0126      	st         al, @(+0x1, x)
     F5B:	191B      	ld         x, @(+0x19, y)
     F5C:	0116      	ld         al, @(+0x1, x)
     F5D:	03C4      	and        al, #0x3
     F5E:	1127      	st         al, @(+0x11, y)
     F5F:	2827      	st         al, @(+0x28, y)
     F60:	E415      	ld         al, @0xFFE4 <register uy>
     F61:	0434      	add        al, #+0x4
     F62:	0100      	**prefx    0x1
     F63:	A600      	**prefx    0xA6
     F64:	339C      	bsr        +0xA633 <___libgatt_lib_db_3944:0xB597[p]>
     F65:	1717      	ld         al, @(+0x17, y)
     F66:	0100      	**prefx    0x1
     F67:	C500      	**prefx    0xC5
     F68:	929C      	bsr        +0xC492 <___libgatt_lib_db_4150:0xD3FA[p]>
     F69:	0100      	**prefx    0x1
     F6A:	A600      	**prefx    0xA6
     F6B:	4E9C      	bsr        +0xA64E <___libgatt_lib_db_3947:0xB5B9[p]>
     F6C:	1227      	st         al, @(+0x12, y)
     F6D:	1717      	ld         al, @(+0x17, y)
     F6E:	0100      	**prefx    0x1
     F6F:	C400      	**prefx    0xC4
     F70:	549C      	bsr        +0xC454 <___libgatt_lib_db_4148:0xD3C4[p]>
     F71:	1237      	add        al, @(+0x12, y)
     F72:	0B27      	st         al, @(+0xB, y)
     F73:	0D1B      	ld         x, @(+0xD, y)
     F74:	002B      	st         x, @(0x0, y)
     F75:	1613      	ld         ah, @(+0x16, y)
     F76:	7D00      	**prefx    0x7D
     F77:	699C      	bsr        +0x7D69 <MemCopyUnPack:0x8CE0[p]>
     F78:	1A1B      	ld         x, @(+0x1A, y)
     F79:	9700      	**prefx    0x97
     F7A:	7716      	ld         al, @(-0x6889, x)
     F7B:	0384      	cmp        al, #+0x3
     F7C:	0E2C      	bcz        +0xE <___libgatt_lib_db_4610+0xA3:0xF8A[p]>
     F7D:	1117      	ld         al, @(+0x11, y)
     F7E:	0027      	st         al, @(0x0, y)
     F7F:	0018      	ld         x, #+0x0
     F80:	012B      	st         x, @(+0x1, y)
     F81:	1717      	ld         al, @(+0x17, y)
     F82:	1513      	ld         ah, @(+0x15, y)
     F83:	0100      	**prefx    0x1
     F84:	D700      	**prefx    0xD7
     F85:	299C      	bsr        +0xD729 <___libgatt_lib_db_4316:0xE6AE[p]>
     F86:	0B1B      	ld         x, @(+0xB, y)
     F87:	0116      	ld         al, @(+0x1, x)
     F88:	0434      	add        al, #+0x4
     F89:	0126      	st         al, @(+0x1, x)
     F8A:	E415      	ld         al, @0xFFE4 <register uy>
     F8B:	0434      	add        al, #+0x4
     F8C:	0100      	**prefx    0x1
     F8D:	A600      	**prefx    0xA6
     F8E:	129C      	bsr        +0xA612 <___libgatt_lib_db_3945:0xB5A0[p]>
     F8F:	E415      	ld         al, @0xFFE4 <register uy>
     F90:	0834      	add        al, #+0x8
     F91:	0100      	**prefx    0x1
     F92:	979C      	bsr        +0x97 <___libgatt_lib_db_4640:0x1029[p]>
     F93:	1317      	ld         al, @(+0x13, y)
     F94:	7F84      	cmp        al, #+0x7F
     F95:	3BF0      	bne        +0x3B <___libgatt_lib_db_4610+0xE9:0xFD0[p]>
     F96:	9700      	**prefx    0x97
     F97:	5799      	tst        @0x9757 <le_device+0x2>
     F98:	38F0      	bne        +0x38 <___libgatt_lib_db_4610+0xE9:0xFD0[p]>
     F99:	101B      	ld         x, @(+0x10, y)
     F9A:	129A      	tst        @(+0x12, x)
     F9B:	35F4      	beq        +0x35 <___libgatt_lib_db_4610+0xE9:0xFD0[p]>
     F9C:	0714      	ld         al, #+0x7
     F9D:	F800      	**prefx    0xF8
     F9E:	5625      	st         al, @0xF856 <___libgatt_lib_db_3128>
     F9F:	4618      	ld         x, #+0x46
     FA0:	F000      	**prefx    0xF0
     FA1:	5629      	st         x, @0xF056 <___libgatt_lib_db_1695>
     FA2:	0014      	ld         al, #+0x0
     FA3:	F600      	**prefx    0xF6
     FA4:	3725      	st         al, @0xF637 <___libgatt_lib_db_1827>
     FA5:	F600      	**prefx    0xF6
     FA6:	3415      	ld         al, @0xF634 <___libgatt_lib_db_1765>
     FA7:	1717      	ld         al, @(+0x17, y)
     FA8:	E411      	ld         ah, @0xFFE4 <register uy>
     FA9:	0230      	add        ah, #+0x2
     FAA:	0100      	**prefx    0x1
     FAB:	C200      	**prefx    0xC2
     FAC:	729C      	bsr        +0xC272 <___libgatt_lib_db_4118:0xD21E[p]>
     FAD:	2514      	ld         al, #+0x25
     FAE:	0100      	**prefx    0x1
     FAF:	C300      	**prefx    0xC3
     FB0:	2E9C      	bsr        +0xC32E <___libgatt_lib_db_4119:0xD2DE[p]>
     FB1:	0E27      	st         al, @(+0xE, y)
     FB2:	E415      	ld         al, @0xFFE4 <register uy>
     FB3:	0234      	add        al, #+0x2
     FB4:	0100      	**prefx    0x1
     FB5:	C200      	**prefx    0xC2
     FB6:	709C      	bsr        +0xC270 <___libgatt_lib_db_4123:0xD226[p]>
     FB7:	1717      	ld         al, @(+0x17, y)
     FB8:	0100      	**prefx    0x1
     FB9:	AA00      	**prefx    0xAA
     FBA:	879C      	bsr        +0xA987 <___libgatt_lib_db_4018:0xB941[p]>
     FBB:	E019      	ld         x, @0xFFE0 <register ah>
     FBC:	F825      	st         al, @0xFFF8 <(scratchpad)>
     FBD:	F600      	**prefx    0xF6
     FBE:	3415      	ld         al, @0xF634 <___libgatt_lib_db_1765>
     FBF:	0E17      	ld         al, @(+0xE, y)
     FC0:	0100      	**prefx    0x1
     FC1:	CA84      	cmp        al, #+0xCA
     FC2:	0EF0      	bne        +0xE <___libgatt_lib_db_4610+0xE9:0xFD0[p]>
     FC3:	A000      	**prefx    0xA0
     FC4:	C011      	ld         ah, @0x9FC0 <DATA_CSTORE_START+0x3C>
     FC5:	10A4      	asr        #0x10
     FC6:	E381      	cmp        ah, @0xFFE3 <register uxl>
     FC7:	0520      	bgt        +0x5 <___libgatt_lib_db_4610+0xE5:0xFCC[p]>
     FC8:	E381      	cmp        ah, @0xFFE3 <register uxl>
     FC9:	07F0      	bne        +0x7 <___libgatt_lib_db_4610+0xE9:0xFD0[p]>
     FCA:	F885      	cmp        al, @0xFFF8 <(scratchpad)>
     FCB:	052C      	bcz        +0x5 <___libgatt_lib_db_4610+0xE9:0xFD0[p]>
     FCC:	F600      	**prefx    0xF6
     FCD:	3415      	ld         al, @0xF634 <___libgatt_lib_db_1765>
     FCE:	40C4      	and        al, #0x40
     FCF:	FDF0      	bne        -0x3 <___libgatt_lib_db_4610+0xE5:0xFCC[p]>
     FD0:	3600      	**prefx    0x36
     FD1:	8999      	tst        @0x3589 <patch_pending_mode>
     FD2:	08F4      	beq        +0x8 <___libgatt_lib_db_4610+0xF3:0xFDA[p]>
     FD3:	111B      	ld         x, @(+0x11, y)
     FD4:	0388      	cmp        x, #+0x3
     FD5:	05F4      	beq        +0x5 <___libgatt_lib_db_4610+0xF3:0xFDA[p]>
     FD6:	1417      	ld         al, @(+0x14, y)
     FD7:	3600      	**prefx    0x36
     FD8:	8725      	st         al, @0x3587 <patch_pending>
     FD9:	2CE0      	bra        +0x2C <___libgatt_lib_db_1085+0x5:0x1005[p]>
     FDA:	1717      	ld         al, @(+0x17, y)
     FDB:	0100      	**prefx    0x1
     FDC:	C400      	**prefx    0xC4
     FDD:	E79C      	bsr        +0xC3E7 <___libgatt_lib_db_4148:0xD3C4[p]>
     FDE:	E111      	ld         ah, @0xFFE1 <register al>
     FDF:	1433      	add        ah, @(+0x14, y)
     FE0:	7FC0      	and        ah, #0x7F
     FE1:	1717      	ld         al, @(+0x17, y)
     FE2:	0100      	**prefx    0x1
     FE3:	C400      	**prefx    0xC4
     FE4:	E79C      	bsr        +0xC3E7 <___libgatt_lib_db_4152:0xD3CB[p]>
     FE5:	9700      	**prefx    0x97
     FE6:	5799      	tst        @0x9757 <le_device+0x2>
     FE7:	1EF4      	beq        +0x1E <___libgatt_lib_db_1085+0x5:0x1005[p]>
     FE8:	1717      	ld         al, @(+0x17, y)
     FE9:	E411      	ld         ah, @0xFFE4 <register uy>
     FEA:	0230      	add        ah, #+0x2
     FEB:	0100      	**prefx    0x1
     FEC:	C200      	**prefx    0xC2
     FED:	319C      	bsr        +0xC231 <___libgatt_lib_db_4118:0xD21E[p]>
     FEE:	E419      	ld         x, @0xFFE4 <register uy>
     FEF:	0638      	add        x, #+0x6
     FF0:	002B      	st         x, @(0x0, y)
     FF1:	3814      	ld         al, #+0x38
     FF2:	E411      	ld         ah, @0xFFE4 <register uy>
     FF3:	0330      	add        ah, #+0x3
     FF4:	0100      	**prefx    0x1
     FF5:	C300      	**prefx    0xC3
     FF6:	879C      	bsr        +0xC287 <___libgatt_lib_db_4122:0xD27D[p]>
     FF7:	E415      	ld         al, @0xFFE4 <register uy>
     FF8:	0234      	add        al, #+0x2
     FF9:	0100      	**prefx    0x1
     FFA:	C200      	**prefx    0xC2
     FFB:	2B9C      	bsr        +0xC22B <___libgatt_lib_db_4123:0xD226[p]>
     FFC:	0613      	ld         ah, @(+0x6, y)
     FFD:	0717      	ld         al, @(+0x7, y)
     FFE:	0127      	st         al, @(+0x1, y)
     FFF:	0023      	st         ah, @(0x0, y)
    1000:	3600      	**prefx    0x36
    1001:	BC14      	ld         al, #+0x35BC
    1002:	0313      	ld         ah, @(+0x3, y)
    1003:	FC00      	**prefx    0xFC
    1004:	9F9C      	bsr        -0x461 <___libgatt_lib_db_4594:0xBA3[p]>
    1005:	E415      	ld         al, @0xFFE4 <register uy>
    1006:	0834      	add        al, #+0x8
    1007:	2E9C      	bsr        +0x2E <___libgatt_lib_db_4639:0x1035[p]>
    1008:	C900      	**prefx    0xC9
    1009:	F618      	ld         x, #-0x370A
    100A:	1B2B      	st         x, @(+0x1B, y)
    100B:	1C0F      	leave      #+0x1C

0x0000100C <___libgatt_lib_db_4619>:
    100C:	060B      	enter      #+0x6
    100D:	0427      	st         al, @(+0x4, y)
    100E:	E415      	ld         al, @0xFFE4 <register uy>
    100F:	1A9C      	bsr        +0x1A <___libgatt_lib_db_4640:0x1029[p]>
    1010:	0714      	ld         al, #+0x7
    1011:	F800      	**prefx    0xF8
    1012:	5625      	st         al, @0xF856 <___libgatt_lib_db_3128>
    1013:	4614      	ld         al, #+0x46
    1014:	F000      	**prefx    0xF0
    1015:	5625      	st         al, @0xF056 <___libgatt_lib_db_1695>
    1016:	0417      	ld         al, @(+0x4, y)
    1017:	03A0      	asl        #0x3
    1018:	F600      	**prefx    0xF6
    1019:	3725      	st         al, @0xF637 <___libgatt_lib_db_1827>
    101A:	F600      	**prefx    0xF6
    101B:	3415      	ld         al, @0xF634 <___libgatt_lib_db_1765>
    101C:	0327      	st         al, @(+0x3, y)
    101D:	E415      	ld         al, @0xFFE4 <register uy>
    101E:	179C      	bsr        +0x17 <___libgatt_lib_db_4639:0x1035[p]>
    101F:	0317      	ld         al, @(+0x3, y)
    1020:	40C4      	and        al, #0x40
    1021:	060F      	leave      #+0x6

0x00001022 <___libgatt_lib_db_4620>:
    1022:	020B      	enter      #+0x2
    1023:	0027      	st         al, @(0x0, y)
    1024:	0017      	ld         al, @(0x0, y)
    1025:	E79C      	bsr        -0x19 <___libgatt_lib_db_4619:0x100C[p]>
    1026:	E199      	tst        @0xFFE1 <register al>
    1027:	FDF4      	beq        -0x3 <___libgatt_lib_db_4620+0x2:0x1024[p]>
    1028:	020F      	leave      #+0x2

0x00001029 <___libgatt_lib_db_4640>:
    1029:	010B      	enter      #+0x1
    102A:	E119      	ld         x, @0xFFE1 <register al>
    102B:	F800      	**prefx    0xF8
    102C:	5615      	ld         al, @0xF856 <___libgatt_lib_db_3128>
    102D:	0026      	st         al, @(0x0, x)
    102E:	F000      	**prefx    0xF0
    102F:	5615      	ld         al, @0xF056 <___libgatt_lib_db_1695>
    1030:	0126      	st         al, @(+0x1, x)
    1031:	F600      	**prefx    0xF6
    1032:	3715      	ld         al, @0xF637 <___libgatt_lib_db_1827>
    1033:	0226      	st         al, @(+0x2, x)
    1034:	010F      	leave      #+0x1

0x00001035 <___libgatt_lib_db_4639>:
    1035:	010B      	enter      #+0x1
    1036:	E119      	ld         x, @0xFFE1 <register al>
    1037:	0016      	ld         al, @(0x0, x)
    1038:	F800      	**prefx    0xF8
    1039:	5625      	st         al, @0xF856 <___libgatt_lib_db_3128>
    103A:	0116      	ld         al, @(+0x1, x)
    103B:	F000      	**prefx    0xF0
    103C:	5625      	st         al, @0xF056 <___libgatt_lib_db_1695>
    103D:	0216      	ld         al, @(+0x2, x)
    103E:	F600      	**prefx    0xF6
    103F:	3725      	st         al, @0xF637 <___libgatt_lib_db_1827>
    1040:	010F      	leave      #+0x1

0x00001041 <___libgatt_lib_db_4645>:
    1041:	010B      	enter      #+0x1
    1042:	3600      	**prefx    0x36
    1043:	8C19      	ld         x, @0x358C <patch_conn_chm_update+0x2>
    1044:	0416      	ld         al, @(+0x4, x)
    1045:	010F      	leave      #+0x1

0x00001046 <.LFB7>:
    1046:	010B      	enter      #+0x1
    1047:	1384      	cmp        al, #+0x13
    1048:	0428      	ble        +0x4 <.LFB7+0x6:0x104C[p]>
    1049:	0014      	ld         al, #+0x0
    104A:	F925      	st         al, @0xFFF9 <(scratchpad)>
    104B:	0FE0      	bra        +0xF <.LFB7+0x14:0x105A[p]>
    104C:	1418      	ld         x, #+0x14
    104D:	E159      	sub        x, @0xFFE1 <register al>
    104E:	E311      	ld         ah, @0xFFE3 <register uxl>
    104F:	0730      	add        ah, #+0x7
    1050:	10A4      	asr        #0x10
    1051:	0F94      	sdiv       #+0xF
    1052:	F925      	st         al, @0xFFF9 <(scratchpad)>
    1053:	E315      	ld         al, @0xFFE3 <register uxl>
    1054:	0A90      	smult      #+0xA
    1055:	E119      	ld         x, @0xFFE1 <register al>
    1056:	0D38      	add        x, #+0xD
    1057:	E311      	ld         ah, @0xFFE3 <register uxl>
    1058:	10A4      	asr        #0x10
    1059:	1A94      	sdiv       #+0x1A
    105A:	F100      	**prefx    0xF1
    105B:	0619      	ld         x, @0xF106 <___libgatt_lib_db_2240>
    105C:	F000      	**prefx    0xF0
    105D:	00C8      	and        x, #0xF000
    105E:	E1B9      	or         x, @0xFFE1 <register al>
    105F:	06A0      	asl        #0x6
    1060:	E1B9      	or         x, @0xFFE1 <register al>
    1061:	F100      	**prefx    0xF1
    1062:	0629      	st         x, @0xF106 <___libgatt_lib_db_2240>
    1063:	3600      	**prefx    0x36
    1064:	8C19      	ld         x, @0x358C <patch_conn_chm_update+0x2>
    1065:	F829      	st         x, @0xFFF8 <(scratchpad)>
    1066:	0016      	ld         al, @(0x0, x)
    1067:	F955      	sub        al, @0xFFF9 <(scratchpad)>
    1068:	F000      	**prefx    0xF0
    1069:	0025      	st         al, @0xF000 <PERSIST_MEM_END>
    106A:	02A0      	asl        #0x2
    106B:	E111      	ld         ah, @0xFFE1 <register al>
    106C:	10A4      	asr        #0x10
    106D:	2694      	sdiv       #+0x26
    106E:	1334      	add        al, #+0x13
    106F:	F700      	**prefx    0xF7
    1070:	B025      	st         al, @0xF6B0 <___libgatt_lib_db_2014>
    1071:	0316      	ld         al, @(+0x3, x)
    1072:	04A0      	asl        #0x4
    1073:	9C00      	**prefx    0x9C
    1074:	8211      	ld         ah, @0x9B82 <DATA_RCLUTS_START+0x2>
    1075:	8FC0      	and        ah, #0xFF8F
    1076:	E0B5      	or         al, @0xFFE0 <register ah>
    1077:	9C00      	**prefx    0x9C
    1078:	8225      	st         al, @0x9B82 <DATA_RCLUTS_START+0x2>
    1079:	0216      	ld         al, @(+0x2, x)
    107A:	04A0      	asl        #0x4
    107B:	9C00      	**prefx    0x9C
    107C:	8111      	ld         ah, @0x9B81 <DATA_RCLUTS_START+0x1>
    107D:	FF00      	**prefx    0xFF
    107E:	0FC0      	and        ah, #0xFF0F
    107F:	E0B5      	or         al, @0xFFE0 <register ah>
    1080:	9C00      	**prefx    0x9C
    1081:	8125      	st         al, @0x9B81 <DATA_RCLUTS_START+0x1>
    1082:	F000      	**prefx    0xF0
    1083:	0C15      	ld         al, @0xF00C <___libgatt_lib_db_1004>
    1084:	F925      	st         al, @0xFFF9 <(scratchpad)>
    1085:	0316      	ld         al, @(+0x3, x)
    1086:	04A0      	asl        #0x4
    1087:	F919      	ld         x, @0xFFF9 <(scratchpad)>
    1088:	8FC8      	and        x, #0xFF8F
    1089:	E3B5      	or         al, @0xFFE3 <register uxl>
    108A:	F000      	**prefx    0xF0
    108B:	0C25      	st         al, @0xF00C <___libgatt_lib_db_1004>
    108C:	F000      	**prefx    0xF0
    108D:	0B15      	ld         al, @0xF00B <___libgatt_lib_db_1387>
    108E:	F925      	st         al, @0xFFF9 <(scratchpad)>
    108F:	F819      	ld         x, @0xFFF8 <(scratchpad)>
    1090:	0216      	ld         al, @(+0x2, x)
    1091:	04A0      	asl        #0x4
    1092:	F919      	ld         x, @0xFFF9 <(scratchpad)>
    1093:	FF00      	**prefx    0xFF
    1094:	0FC8      	and        x, #0xFF0F
    1095:	E3B5      	or         al, @0xFFE3 <register uxl>
    1096:	F000      	**prefx    0xF0
    1097:	0B25      	st         al, @0xF00B <___libgatt_lib_db_1387>
    1098:	F819      	ld         x, @0xFFF8 <(scratchpad)>
    1099:	0116      	ld         al, @(+0x1, x)
    109A:	F000      	**prefx    0xF0
    109B:	0125      	st         al, @0xF001 <___libgatt_lib_db_1388>
    109C:	010F      	leave      #+0x1

0x0000109D <___libgatt_lib_db_4646>:
    109D:	010B      	enter      #+0x1
    109E:	0590      	smult      #+0x5
    109F:	3500      	**prefx    0x35
    10A0:	3A34      	add        al, #+0x353A
    10A1:	3600      	**prefx    0x36
    10A2:	8C25      	st         al, @0x358C <patch_conn_chm_update+0x2>
    10A3:	0100      	**prefx    0x1
    10A4:	E900      	**prefx    0xE9
    10A5:	969C      	bsr        +0xE896 <___libgatt_lib_db_4511:0xF93B[p]>
    10A6:	A09C      	bsr        -0x60 <.LFB7:0x1046[p]>
    10A7:	010F      	leave      #+0x1

0x000010A8 <___libgatt_lib_db_4644>:
    10A8:	010B      	enter      #+0x1
    10A9:	3600      	**prefx    0x36
    10AA:	8C99      	tst        @0x358C <patch_conn_chm_update+0x2>
    10AB:	04F0      	bne        +0x4 <___libgatt_lib_db_4644+0x7:0x10AF[p]>
    10AC:	A000      	**prefx    0xA0
    10AD:	9615      	ld         al, @0x9F96 <DATA_CSTORE_START+0x12>
    10AE:	EF9C      	bsr        -0x11 <___libgatt_lib_db_4646:0x109D[p]>
    10AF:	2217      	ld         al, @(+0x22, y)
    10B0:	969C      	bsr        -0x6A <.LFB7:0x1046[p]>
    10B1:	010F      	leave      #+0x1

0x000010B2 <___libgatt_lib_db_4654>:
    10B2:	010B      	enter      #+0x1
    10B3:	E315      	ld         al, @0xFFE3 <register uxl>
    10B4:	E000      	**prefx    0xE0
    10B5:	6084      	cmp        al, #-0x1FA0
    10B6:	1FF0      	bne        +0x1F <___libgatt_lib_db_4654+0x23:0x10D5[p]>
    10B7:	0917      	ld         al, @(+0x9, y)
    10B8:	E100      	**prefx    0xE1
    10B9:	EA84      	cmp        al, #-0x1F16
    10BA:	1BF0      	bne        +0x1B <___libgatt_lib_db_4654+0x23:0x10D5[p]>
    10BB:	0B13      	ld         ah, @(+0xB, y)
    10BC:	3600      	**prefx    0x36
    10BD:	8D15      	ld         al, @0x358D <patch_conn_chm_update+0x3>
    10BE:	9300      	**prefx    0x93
    10BF:	A634      	add        al, #-0x6D5A
    10C0:	E085      	cmp        al, @0xFFE0 <register ah>
    10C1:	14F0      	bne        +0x14 <___libgatt_lib_db_4654+0x23:0x10D5[p]>
    10C2:	3700      	**prefx    0x37
    10C3:	DF15      	ld         al, @0x36DF <___libgatt_lib_db_4656>
    10C4:	07F4      	beq        +0x7 <___libgatt_lib_db_4654+0x19:0x10CB[p]>
    10C5:	0009      	**unsigned
    10C6:	2700      	**prefx    0x27
    10C7:	1090      	umult      #0x2710
    10C8:	0827      	st         al, @(+0x8, y)
    10C9:	0723      	st         ah, @(+0x7, y)
    10CA:	0BE0      	bra        +0xB <___libgatt_lib_db_4654+0x23:0x10D5[p]>
    10CB:	3600      	**prefx    0x36
    10CC:	8D11      	ld         ah, @0x358D <patch_conn_chm_update+0x3>
    10CD:	E000      	**prefx    0xE0
    10CE:	1930      	add        ah, #-0x1FE7
    10CF:	9400      	**prefx    0x94
    10D0:	7015      	ld         al, @0x9470 <tid_con_param_update>
    10D1:	FF23      	st         ah, @(-0x1, y)
    10D2:	FF9F      	bsr        @(-0x1, y)
    10D3:	0014      	ld         al, #+0x0
    10D4:	0F0F      	leave      #+0xF
    10D5:	010F      	leave      #+0x1

0x000010D6 <ram_app_init>:
    10D6:	020B      	enter      #+0x2
    10D7:	3D14      	ld         al, #+0x3D
    10D8:	0027      	st         al, @(0x0, y)
    10D9:	3600      	**prefx    0x36
    10DA:	8214      	ld         al, #+0x3582
    10DB:	0010      	ld         ah, #+0x0
    10DC:	7C00      	**prefx    0x7C
    10DD:	309C      	bsr        +0x7C30 <MemSet:0x8D0D[p]>
    10DE:	0400      	**prefx    0x4
    10DF:	8C14      	ld         al, #+0x38C
    10E0:	0100      	**prefx    0x1
    10E1:	D700      	**prefx    0xD7
    10E2:	A79C      	bsr        +0xD6A7 <___libgatt_lib_db_4323:0xE789[p]>
    10E3:	0400      	**prefx    0x4
    10E4:	8D14      	ld         al, #+0x38D
    10E5:	0100      	**prefx    0x1
    10E6:	D700      	**prefx    0xD7
    10E7:	A59C      	bsr        +0xD6A5 <___libgatt_lib_db_4322:0xE78C[p]>
    10E8:	0300      	**prefx    0x3
    10E9:	5A14      	ld         al, #+0x35A
    10EA:	0100      	**prefx    0x1
    10EB:	D700      	**prefx    0xD7
    10EC:	A39C      	bsr        +0xD6A3 <___libgatt_lib_db_4324:0xE78F[p]>
    10ED:	1100      	**prefx    0x11
    10EE:	0714      	ld         al, #+0x1107
    10EF:	0100      	**prefx    0x1
    10F0:	D900      	**prefx    0xD9
    10F1:	859C      	bsr        +0xD885 <___libgatt_lib_db_4366:0xE976[p]>
    10F2:	0100      	**prefx    0x1
    10F3:	E800      	**prefx    0xE8
    10F4:	9F9C      	bsr        +0xE79F <IdGetRomBuild:0xF893[p]>
    10F5:	0200      	**prefx    0x2
    10F6:	FB84      	cmp        al, #+0x1FB
    10F7:	05F4      	beq        +0x5 <ram_app_init+0x26:0x10FC[p]>
    10F8:	1D14      	ld         al, #+0x1D
    10F9:	0100      	**prefx    0x1
    10FA:	D800      	**prefx    0xD8
    10FB:	1F9C      	bsr        +0xD81F <fault:0xE91A[p]>
    10FC:	3500      	**prefx    0x35
    10FD:	6215      	ld         al, @0x3562 <ram_build_identifier_integer>
    10FE:	0100      	**prefx    0x1
    10FF:	E800      	**prefx    0xE8
    1100:	909C      	bsr        +0xE790 <___libgatt_lib_db_4492:0xF890[p]>
    1101:	0400      	**prefx    0x4
    1102:	FE14      	ld         al, #+0x3FE
    1103:	0100      	**prefx    0x1
    1104:	8400      	**prefx    0x84
    1105:	B59C      	bsr        +0x83B5 <installAppProcessLmEvent:0x94BA[p]>
    1106:	020F      	leave      #+0x2

0x00001107 <___libgatt_lib_db_4364>:
    1107:	1114      	ld         al, #+0x11
    1108:	F700      	**prefx    0xF7
    1109:	F525      	st         al, @0xF6F5 <___libgatt_lib_db_1861>
    110A:	5100      	**prefx    0x51
    110B:	D714      	ld         al, #+0x50D7
    110C:	F600      	**prefx    0xF6
    110D:	3525      	st         al, @0xF635 <___libgatt_lib_db_1862>
    110E:	00E2      	bra        0x0, x

0x0000110F <NvmConfigureI2cEeprom>:
    110F:	010B      	enter      #+0x1
    1110:	0100      	**prefx    0x1
    1111:	DF00      	**prefx    0xDF
    1112:	B29C      	bsr        +0xDEB2 <NvmConfigureI2cEeprom_A05:0xEFC4[p]>
    1113:	1100      	**prefx    0x11
    1114:	1C18      	ld         x, #+0x111C
    1115:	9500      	**prefx    0x95
    1116:	FB29      	st         x, @0x94FB <storage_disable>
    1117:	1100      	**prefx    0x11
    1118:	0F18      	ld         x, #+0x110F
    1119:	9500      	**prefx    0x95
    111A:	FC29      	st         x, @0x94FC <storage_enable>
    111B:	010F      	leave      #+0x1

0x0000111C <.LFB3>:
    111C:	010B      	enter      #+0x1
    111D:	0014      	ld         al, #+0x0
    111E:	0100      	**prefx    0x1
    111F:	D900      	**prefx    0xD9
    1120:	DA9C      	bsr        +0xD8DA <I2cEnable:0xE9FA[p]>
    1121:	A000      	**prefx    0xA0
    1122:	C315      	ld         al, @0x9FC3 <DATA_CSTORE_START+0x3F>
    1123:	0100      	**prefx    0x1
    1124:	E700      	**prefx    0xE7
    1125:	EE9C      	bsr        +0xE6EE <PioSetI2CPullMode:0xF813[p]>
    1126:	010F      	leave      #+0x1

0x00001127 <IdGetLlVerBtle>:
    1127:	0714      	ld         al, #+0x7
    1128:	00E2      	bra        0x0, x

0x00001129 <___libgatt_lib_db_4565>:
    1129:	0917      	ld         al, @(+0x9, y)
    112A:	0FC4      	and        al, #0xF
    112B:	0584      	cmp        al, #+0x5
    112C:	03F0      	bne        +0x3 <___libgatt_lib_db_4565+0x6:0x112F[p]>
    112D:	0114      	ld         al, #+0x1
    112E:	02E0      	bra        +0x2 <___libgatt_lib_db_4565+0x7:0x1130[p]>
    112F:	0014      	ld         al, #+0x0
    1130:	3600      	**prefx    0x36
    1131:	BB25      	st         al, @0x35BB <enable_lowduty_directed_adv>
    1132:	00E2      	bra        0x0, x

0x00001133 <___libgatt_lib_db_4567>:
    1133:	0017      	ld         al, @(0x0, y)
    1134:	0E84      	cmp        al, #+0xE
    1135:	04F4      	beq        +0x4 <___libgatt_lib_db_4567+0x6:0x1139[p]>
    1136:	1884      	cmp        al, #+0x18
    1137:	09F0      	bne        +0x9 <___libgatt_lib_db_4567+0xD:0x1140[p]>
    1138:	05E0      	bra        +0x5 <___libgatt_lib_db_4567+0xA:0x113D[p]>
    1139:	1200      	**prefx    0x12
    113A:	3F14      	ld         al, #+0x123F
    113B:	0127      	st         al, @(+0x1, y)
    113C:	00E2      	bra        0x0, x
    113D:	1100      	**prefx    0x11
    113E:	4114      	ld         al, #+0x1141
    113F:	0127      	st         al, @(+0x1, y)
    1140:	00E2      	bra        0x0, x

0x00001141 <.LFB4>:
    1141:	0F0B      	enter      #+0xF
    1142:	0C27      	st         al, @(+0xC, y)
    1143:	0D23      	st         ah, @(+0xD, y)
    1144:	0014      	ld         al, #+0x0
    1145:	0427      	st         al, @(+0x4, y)
    1146:	FF18      	ld         x, #-0x1
    1147:	052B      	st         x, @(+0x5, y)
    1148:	E099      	tst        @0xFFE0 <register ah>
    1149:	07F4      	beq        +0x7 <.LFB4+0xF:0x1150[p]>
    114A:	0C1B      	ld         x, @(+0xC, y)
    114B:	0100      	**prefx    0x1
    114C:	9616      	ld         al, @(+0x96, x)
    114D:	0134      	add        al, #+0x1
    114E:	0100      	**prefx    0x1
    114F:	9726      	st         al, @(+0x97, x)
    1150:	0C17      	ld         al, @(+0xC, y)
    1151:	0100      	**prefx    0x1
    1152:	9734      	add        al, #+0x97
    1153:	7C00      	**prefx    0x7C
    1154:	539C      	bsr        +0x7C53 <BufReadUint8:0x8DA7[p]>
    1155:	E199      	tst        @0xFFE1 <register al>
    1156:	05F4      	beq        +0x5 <.LFB4+0x1A:0x115B[p]>
    1157:	0184      	cmp        al, #+0x1
    1158:	0100      	**prefx    0x1
    1159:	E2F0      	bne        +0xE2 <.LFB4+0xFA:0x123B[p]>
    115A:	05E0      	bra        +0x5 <.LFB4+0x1E:0x115F[p]>
    115B:	0014      	ld         al, #+0x0
    115C:	0727      	st         al, @(+0x7, y)
    115D:	0100      	**prefx    0x1
    115E:	C2E0      	bra        +0xC2 <.LFB4+0xDF:0x1220[p]>
    115F:	0D9B      	tst        @(+0xD, y)
    1160:	09F4      	beq        +0x9 <.LFB4+0x28:0x1169[p]>
    1161:	0D1B      	ld         x, @(+0xD, y)
    1162:	041A      	ld         x, @(+0x4, x)
    1163:	072B      	st         x, @(+0x7, y)
    1164:	05F4      	beq        +0x5 <.LFB4+0x28:0x1169[p]>
    1165:	0A00      	**prefx    0xA
    1166:	4388      	cmp        x, #+0xA43
    1167:	0100      	**prefx    0x1
    1168:	C8F0      	bne        +0xC8 <.LFB4+0xEF:0x1230[p]>
    1169:	0C17      	ld         al, @(+0xC, y)
    116A:	0434      	add        al, #+0x4
    116B:	0627      	st         al, @(+0x6, y)
    116C:	0927      	st         al, @(+0x9, y)
    116D:	0018      	ld         x, #+0x0
    116E:	072B      	st         x, @(+0x7, y)
    116F:	082B      	st         x, @(+0x8, y)
    1170:	62E0      	bra        +0x62 <.LFB4+0x91:0x11D2[p]>
    1171:	091B      	ld         x, @(+0x9, y)
    1172:	0016      	ld         al, @(0x0, x)
    1173:	0587      	cmp        al, @(+0x5, y)
    1174:	03FC      	bcs        +0x3 <.LFB4+0x36:0x1177[p]>
    1175:	049B      	tst        @(+0x4, y)
    1176:	07F0      	bne        +0x7 <.LFB4+0x3C:0x117D[p]>
    1177:	E411      	ld         ah, @0xFFE4 <register uy>
    1178:	0530      	add        ah, #+0x5
    1179:	0100      	**prefx    0x1
    117A:	9C00      	**prefx    0x9C
    117B:	B89C      	bsr        +0x9BB8 <___libgatt_lib_db_273:0xAD33[p]>
    117C:	0427      	st         al, @(+0x4, y)
    117D:	0917      	ld         al, @(+0x9, y)
    117E:	0334      	add        al, #+0x3
    117F:	0B27      	st         al, @(+0xB, y)
    1180:	41E0      	bra        +0x41 <.LFB4+0x80:0x11C1[p]>
    1181:	E181      	cmp        ah, @0xFFE1 <register al>
    1182:	38F0      	bne        +0x38 <.LFB4+0x79:0x11BA[p]>
    1183:	0D9B      	tst        @(+0xD, y)
    1184:	28F0      	bne        +0x28 <.LFB4+0x6B:0x11AC[p]>
    1185:	F819      	ld         x, @0xFFF8 <(scratchpad)>
    1186:	0012      	ld         ah, @(0x0, x)
    1187:	0009      	**unsigned
    1188:	08A4      	lsr        #0x8
    1189:	04C0      	and        ah, #0x4
    118A:	30F4      	beq        +0x30 <.LFB4+0x79:0x11BA[p]>
    118B:	091B      	ld         x, @(+0x9, y)
    118C:	0216      	ld         al, @(+0x2, x)
    118D:	0DF4      	beq        +0xD <.LFB4+0x59:0x119A[p]>
    118E:	0027      	st         al, @(0x0, y)
    118F:	091B      	ld         x, @(+0x9, y)
    1190:	011A      	ld         x, @(+0x1, x)
    1191:	012B      	st         x, @(+0x1, y)
    1192:	9700      	**prefx    0x97
    1193:	C014      	ld         al, #-0x6940
    1194:	0B13      	ld         ah, @(+0xB, y)
    1195:	0100      	**prefx    0x1
    1196:	9900      	**prefx    0x99
    1197:	F49C      	bsr        +0x98F4 <___libgatt_lib_db_288:0xAA8B[p]>
    1198:	9700      	**prefx    0x97
    1199:	C014      	ld         al, #-0x6940
    119A:	0218      	ld         x, #+0x2
    119B:	002B      	st         x, @(0x0, y)
    119C:	091B      	ld         x, @(+0x9, y)
    119D:	011A      	ld         x, @(+0x1, x)
    119E:	012B      	st         x, @(+0x1, y)
    119F:	091B      	ld         x, @(+0x9, y)
    11A0:	021A      	ld         x, @(+0x2, x)
    11A1:	022B      	st         x, @(+0x2, y)
    11A2:	0327      	st         al, @(+0x3, y)
    11A3:	0C1B      	ld         x, @(+0xC, y)
    11A4:	0016      	ld         al, @(0x0, x)
    11A5:	0513      	ld         ah, @(+0x5, y)
    11A6:	0100      	**prefx    0x1
    11A7:	9100      	**prefx    0x91
    11A8:	209C      	bsr        +0x9120 <___libgatt_lib_db_226:0xA2C8[p]>
    11A9:	0114      	ld         al, #+0x1
    11AA:	0827      	st         al, @(+0x8, y)
    11AB:	0FE0      	bra        +0xF <.LFB4+0x79:0x11BA[p]>
    11AC:	0D1B      	ld         x, @(+0xD, y)
    11AD:	041A      	ld         x, @(+0x4, x)
    11AE:	072B      	st         x, @(+0x7, y)
    11AF:	0A00      	**prefx    0xA
    11B0:	4388      	cmp        x, #+0xA43
    11B1:	09F0      	bne        +0x9 <.LFB4+0x79:0x11BA[p]>
    11B2:	E415      	ld         al, @0xFFE4 <register uy>
    11B3:	0434      	add        al, #+0x4
    11B4:	0913      	ld         ah, @(+0x9, y)
    11B5:	0100      	**prefx    0x1
    11B6:	9A00      	**prefx    0x9A
    11B7:	2F9C      	bsr        +0x9A2F <___libgatt_lib_db_271:0xABE6[p]>
    11B8:	0727      	st         al, @(+0x7, y)
    11B9:	13F0      	bne        +0x13 <.LFB4+0x8B:0x11CC[p]>
    11BA:	0417      	ld         al, @(+0x4, y)
    11BB:	E411      	ld         ah, @0xFFE4 <register uy>
    11BC:	0530      	add        ah, #+0x5
    11BD:	0100      	**prefx    0x1
    11BE:	9B00      	**prefx    0x9B
    11BF:	B19C      	bsr        +0x9AB1 <___libgatt_lib_db_279:0xAC70[p]>
    11C0:	0427      	st         al, @(+0x4, y)
    11C1:	0417      	ld         al, @(+0x4, y)
    11C2:	F825      	st         al, @0xFFF8 <(scratchpad)>
    11C3:	09F4      	beq        +0x9 <.LFB4+0x8B:0x11CC[p]>
    11C4:	0513      	ld         ah, @(+0x5, y)
    11C5:	091B      	ld         x, @(+0x9, y)
    11C6:	0016      	ld         al, @(0x0, x)
    11C7:	E181      	cmp        ah, @0xFFE1 <register al>
    11C8:	022C      	bcz        +0x2 <.LFB4+0x89:0x11CA[p]>
    11C9:	03E0      	bra        +0x3 <.LFB4+0x8B:0x11CC[p]>
    11CA:	079B      	tst        @(+0x7, y)
    11CB:	B6F4      	beq        -0x4A <.LFB4+0x40:0x1181[p]>
    11CC:	0C17      	ld         al, @(+0xC, y)
    11CD:	0913      	ld         ah, @(+0x9, y)
    11CE:	0100      	**prefx    0x1
    11CF:	9900      	**prefx    0x99
    11D0:	5F9C      	bsr        +0x995F <___libgatt_lib_db_291:0xAB2F[p]>
    11D1:	0927      	st         al, @(+0x9, y)
    11D2:	099B      	tst        @(+0x9, y)
    11D3:	03F4      	beq        +0x3 <.LFB4+0x95:0x11D6[p]>
    11D4:	079B      	tst        @(+0x7, y)
    11D5:	9CF4      	beq        -0x64 <.LFB4+0x30:0x1171[p]>
    11D6:	089B      	tst        @(+0x8, y)
    11D7:	10F4      	beq        +0x10 <.LFB4+0xA6:0x11E7[p]>
    11D8:	4000      	**prefx    0x40
    11D9:	0014      	ld         al, #+0x4000
    11DA:	0027      	st         al, @(0x0, y)
    11DB:	0018      	ld         x, #+0x0
    11DC:	012B      	st         x, @(+0x1, y)
    11DD:	022B      	st         x, @(+0x2, y)
    11DE:	032B      	st         x, @(+0x3, y)
    11DF:	0C1B      	ld         x, @(+0xC, y)
    11E0:	0016      	ld         al, @(0x0, x)
    11E1:	0010      	ld         ah, #+0x0
    11E2:	0100      	**prefx    0x1
    11E3:	9100      	**prefx    0x91
    11E4:	E49C      	bsr        +0x90E4 <___libgatt_lib_db_226:0xA2C8[p]>
    11E5:	0014      	ld         al, #+0x0
    11E6:	54E0      	bra        +0x54 <.LFB4+0xF9:0x123A[p]>
    11E7:	0D9B      	tst        @(+0xD, y)
    11E8:	38F0      	bne        +0x38 <.LFB4+0xDF:0x1220[p]>
    11E9:	FF14      	ld         al, #-0x1
    11EA:	0527      	st         al, @(+0x5, y)
    11EB:	0018      	ld         x, #+0x0
    11EC:	042B      	st         x, @(+0x4, y)
    11ED:	2FE0      	bra        +0x2F <.LFB4+0xDB:0x121C[p]>
    11EE:	061B      	ld         x, @(+0x6, y)
    11EF:	0016      	ld         al, @(0x0, x)
    11F0:	0587      	cmp        al, @(+0x5, y)
    11F1:	03FC      	bcs        +0x3 <.LFB4+0xB3:0x11F4[p]>
    11F2:	049B      	tst        @(+0x4, y)
    11F3:	18F0      	bne        +0x18 <.LFB4+0xCA:0x120B[p]>
    11F4:	E411      	ld         ah, @0xFFE4 <register uy>
    11F5:	0530      	add        ah, #+0x5
    11F6:	0100      	**prefx    0x1
    11F7:	9B00      	**prefx    0x9B
    11F8:	3B9C      	bsr        +0x9B3B <___libgatt_lib_db_273:0xAD33[p]>
    11F9:	11E0      	bra        +0x11 <.LFB4+0xC9:0x120A[p]>
    11FA:	E181      	cmp        ah, @0xFFE1 <register al>
    11FB:	09F0      	bne        +0x9 <.LFB4+0xC3:0x1204[p]>
    11FC:	E415      	ld         al, @0xFFE4 <register uy>
    11FD:	0434      	add        al, #+0x4
    11FE:	0613      	ld         ah, @(+0x6, y)
    11FF:	0100      	**prefx    0x1
    1200:	9A00      	**prefx    0x9A
    1201:	E59C      	bsr        +0x99E5 <___libgatt_lib_db_271:0xABE6[p]>
    1202:	0A27      	st         al, @(+0xA, y)
    1203:	11F0      	bne        +0x11 <.LFB4+0xD3:0x1214[p]>
    1204:	0417      	ld         al, @(+0x4, y)
    1205:	E411      	ld         ah, @0xFFE4 <register uy>
    1206:	0530      	add        ah, #+0x5
    1207:	0100      	**prefx    0x1
    1208:	9A00      	**prefx    0x9A
    1209:	679C      	bsr        +0x9A67 <___libgatt_lib_db_279:0xAC70[p]>
    120A:	0427      	st         al, @(+0x4, y)
    120B:	049B      	tst        @(+0x4, y)
    120C:	06F4      	beq        +0x6 <.LFB4+0xD1:0x1212[p]>
    120D:	0513      	ld         ah, @(+0x5, y)
    120E:	061B      	ld         x, @(+0x6, y)
    120F:	0016      	ld         al, @(0x0, x)
    1210:	E181      	cmp        ah, @0xFFE1 <register al>
    1211:	E92C      	bcz        -0x17 <.LFB4+0xB9:0x11FA[p]>
    1212:	0014      	ld         al, #+0x0
    1213:	0A27      	st         al, @(+0xA, y)
    1214:	0C17      	ld         al, @(+0xC, y)
    1215:	0613      	ld         ah, @(+0x6, y)
    1216:	0100      	**prefx    0x1
    1217:	9900      	**prefx    0x99
    1218:	179C      	bsr        +0x9917 <___libgatt_lib_db_291:0xAB2F[p]>
    1219:	0627      	st         al, @(+0x6, y)
    121A:	0A1B      	ld         x, @(+0xA, y)
    121B:	072B      	st         x, @(+0x7, y)
    121C:	069B      	tst        @(+0x6, y)
    121D:	03F4      	beq        +0x3 <.LFB4+0xDF:0x1220[p]>
    121E:	079B      	tst        @(+0x7, y)
    121F:	CFF4      	beq        -0x31 <.LFB4+0xAD:0x11EE[p]>
    1220:	0C17      	ld         al, @(+0xC, y)
    1221:	0100      	**prefx    0x1
    1222:	9900      	**prefx    0x99
    1223:	069C      	bsr        +0x9906 <___libgatt_lib_db_290:0xAB29[p]>
    1224:	079B      	tst        @(+0x7, y)
    1225:	0BF0      	bne        +0xB <.LFB4+0xEF:0x1230[p]>
    1226:	0C17      	ld         al, @(+0xC, y)
    1227:	1910      	ld         ah, #+0x19
    1228:	0100      	**prefx    0x1
    1229:	8A00      	**prefx    0x8A
    122A:	E29C      	bsr        +0x89E2 <___libgatt_lib_db_164:0x9C0C[p]>
    122B:	0C17      	ld         al, @(+0xC, y)
    122C:	0100      	**prefx    0x1
    122D:	8A00      	**prefx    0x8A
    122E:	999C      	bsr        +0x8999 <___libgatt_lib_db_165:0x9BC7[p]>
    122F:	0AE0      	bra        +0xA <.LFB4+0xF8:0x1239[p]>
    1230:	0517      	ld         al, @(+0x5, y)
    1231:	0027      	st         al, @(0x0, y)
    1232:	071B      	ld         x, @(+0x7, y)
    1233:	012B      	st         x, @(+0x1, y)
    1234:	0C17      	ld         al, @(+0xC, y)
    1235:	1810      	ld         ah, #+0x18
    1236:	0100      	**prefx    0x1
    1237:	8600      	**prefx    0x86
    1238:	539C      	bsr        +0x8653 <___libgatt_lib_db_143:0x988B[p]>
    1239:	0114      	ld         al, #+0x1
    123A:	0F0F      	leave      #+0xF
    123B:	0A00      	**prefx    0xA
    123C:	0414      	ld         al, #+0xA04
    123D:	0727      	st         al, @(+0x7, y)
    123E:	F2E0      	bra        -0xE <.LFB4+0xEF:0x1230[p]>

0x0000123F <.LFB3>:
    123F:	0E0B      	enter      #+0xE
    1240:	0B27      	st         al, @(+0xB, y)
    1241:	0C23      	st         ah, @(+0xC, y)
    1242:	FF14      	ld         al, #-0x1
    1243:	0427      	st         al, @(+0x4, y)
    1244:	0B1B      	ld         x, @(+0xB, y)
    1245:	0100      	**prefx    0x1
    1246:	9616      	ld         al, @(+0x96, x)
    1247:	0100      	**prefx    0x1
    1248:	9756      	sub        al, @(+0x97, x)
    1249:	0100      	**prefx    0x1
    124A:	9836      	add        al, @(+0x98, x)
    124B:	0727      	st         al, @(+0x7, y)
    124C:	01C4      	and        al, #0x1
    124D:	06F4      	beq        +0x6 <.LFB3+0x14:0x1253[p]>
    124E:	0018      	ld         x, #+0x0
    124F:	002B      	st         x, @(0x0, y)
    1250:	0A00      	**prefx    0xA
    1251:	0414      	ld         al, #+0xA04
    1252:	4DE0      	bra        +0x4D <.LFB3+0x60:0x129F[p]>
    1253:	0B17      	ld         al, @(+0xB, y)
    1254:	0F10      	ld         ah, #+0xF
    1255:	0100      	**prefx    0x1
    1256:	8A00      	**prefx    0x8A
    1257:	B59C      	bsr        +0x89B5 <___libgatt_lib_db_164:0x9C0C[p]>
    1258:	0627      	st         al, @(+0x6, y)
    1259:	0C9B      	tst        @(+0xC, y)
    125A:	0100      	**prefx    0x1
    125B:	8BF4      	beq        +0x8B <UART_SLOW_RATE_2K4+0x26:0x12E6[p]>
    125C:	0C1B      	ld         x, @(+0xC, y)
    125D:	0416      	ld         al, @(+0x4, x)
    125E:	0CF0      	bne        +0xC <.LFB3+0x2B:0x126A[p]>
    125F:	0612      	ld         ah, @(+0x6, x)
    1260:	0516      	ld         al, @(+0x5, x)
    1261:	0027      	st         al, @(0x0, y)
    1262:	0B17      	ld         al, @(+0xB, y)
    1263:	0100      	**prefx    0x1
    1264:	8A00      	**prefx    0x8A
    1265:	899C      	bsr        +0x8989 <___libgatt_lib_db_166:0x9BEE[p]>
    1266:	0627      	st         al, @(+0x6, y)
    1267:	0018      	ld         x, #+0x0
    1268:	0C2B      	st         x, @(+0xC, y)
    1269:	7DE0      	bra        +0x7D <UART_SLOW_RATE_2K4+0x26:0x12E6[p]>
    126A:	0A00      	**prefx    0xA
    126B:	4384      	cmp        al, #+0xA43
    126C:	0BF0      	bne        +0xB <.LFB3+0x38:0x1277[p]>
    126D:	0B1B      	ld         x, @(+0xB, y)
    126E:	0100      	**prefx    0x1
    126F:	9716      	ld         al, @(+0x97, x)
    1270:	FE34      	add        al, #-0x2
    1271:	0100      	**prefx    0x1
    1272:	9726      	st         al, @(+0x97, x)
    1273:	0717      	ld         al, @(+0x7, y)
    1274:	0234      	add        al, #+0x2
    1275:	0727      	st         al, @(+0x7, y)
    1276:	70E0      	bra        +0x70 <UART_SLOW_RATE_2K4+0x26:0x12E6[p]>
    1277:	0C1B      	ld         x, @(+0xC, y)
    1278:	031A      	ld         x, @(+0x3, x)
    1279:	25E0      	bra        +0x25 <.LFB3+0x5F:0x129E[p]>
    127A:	0A17      	ld         al, @(+0xA, y)
    127B:	7B00      	**prefx    0x7B
    127C:	379C      	bsr        +0x7B37 <BufReadUint16:0x8DB3[p]>
    127D:	0827      	st         al, @(+0x8, y)
    127E:	0487      	cmp        al, @(+0x4, y)
    127F:	03FC      	bcs        +0x3 <.LFB3+0x43:0x1282[p]>
    1280:	059B      	tst        @(+0x5, y)
    1281:	4DF0      	bne        +0x4D <UART_SLOW_RATE_2K4+0xE:0x12CE[p]>
    1282:	0817      	ld         al, @(+0x8, y)
    1283:	E411      	ld         ah, @0xFFE4 <register uy>
    1284:	0430      	add        ah, #+0x4
    1285:	0100      	**prefx    0x1
    1286:	9B00      	**prefx    0x9B
    1287:	AC9C      	bsr        +0x9AAC <___libgatt_lib_db_273:0xAD33[p]>
    1288:	45E0      	bra        +0x45 <UART_SLOW_RATE_2K4+0xD:0x12CD[p]>
    1289:	0887      	cmp        al, @(+0x8, y)
    128A:	3DF0      	bne        +0x3D <UART_SLOW_RATE_2K4+0x7:0x12C7[p]>
    128B:	0517      	ld         al, @(+0x5, y)
    128C:	0100      	**prefx    0x1
    128D:	9A00      	**prefx    0x9A
    128E:	4D9C      	bsr        +0x9A4D <___libgatt_lib_db_280:0xACDB[p]>
    128F:	02C4      	and        al, #0x2
    1290:	04F0      	bne        +0x4 <.LFB3+0x55:0x1294[p]>
    1291:	0A00      	**prefx    0xA
    1292:	0214      	ld         al, #+0xA02
    1293:	0AE0      	bra        +0xA <.LFB3+0x5E:0x129D[p]>
    1294:	0214      	ld         al, #+0x2
    1295:	0027      	st         al, @(0x0, y)
    1296:	0B17      	ld         al, @(+0xB, y)
    1297:	0513      	ld         ah, @(+0x5, y)
    1298:	0100      	**prefx    0x1
    1299:	9000      	**prefx    0x90
    129A:	069C      	bsr        +0x9006 <___libgatt_lib_db_222:0xA2A0[p]>
    129B:	E199      	tst        @0xFFE1 <register al>
    129C:	05F4      	beq        +0x5 <.LFB3+0x62:0x12A1[p]>
    129D:	081B      	ld         x, @(+0x8, y)
    129E:	002B      	st         x, @(0x0, y)
    129F:	0127      	st         al, @(+0x1, y)
    12A0:	40E0      	bra        +0x40 <UART_SLOW_RATE_2K4+0x20:0x12E0[p]>
    12A1:	0C9B      	tst        @(+0xC, y)
    12A2:	16F0      	bne        +0x16 <.LFB3+0x79:0x12B8[p]>
    12A3:	051B      	ld         x, @(+0x5, y)
    12A4:	0012      	ld         ah, @(0x0, x)
    12A5:	0009      	**unsigned
    12A6:	08A4      	lsr        #0x8
    12A7:	04C0      	and        ah, #0x4
    12A8:	10F4      	beq        +0x10 <.LFB3+0x79:0x12B8[p]>
    12A9:	8000      	**prefx    0x80
    12AA:	0114      	ld         al, #-0x7FFF
    12AB:	0027      	st         al, @(0x0, y)
    12AC:	0018      	ld         x, #+0x0
    12AD:	012B      	st         x, @(+0x1, y)
    12AE:	022B      	st         x, @(+0x2, y)
    12AF:	032B      	st         x, @(+0x3, y)
    12B0:	0B1B      	ld         x, @(+0xB, y)
    12B1:	0016      	ld         al, @(0x0, x)
    12B2:	0813      	ld         ah, @(+0x8, y)
    12B3:	0100      	**prefx    0x1
    12B4:	9000      	**prefx    0x90
    12B5:	139C      	bsr        +0x9013 <___libgatt_lib_db_226:0xA2C8[p]>
    12B6:	0014      	ld         al, #+0x0
    12B7:	42E0      	bra        +0x42 <UART_SLOW_RATE_2K4+0x39:0x12F9[p]>
    12B8:	0014      	ld         al, #+0x0
    12B9:	0027      	st         al, @(0x0, y)
    12BA:	061B      	ld         x, @(+0x6, y)
    12BB:	012B      	st         x, @(+0x1, y)
    12BC:	0917      	ld         al, @(+0x9, y)
    12BD:	0513      	ld         ah, @(+0x5, y)
    12BE:	0100      	**prefx    0x1
    12BF:	9900      	**prefx    0x99
    12C0:	7E9C      	bsr        +0x997E <___libgatt_lib_db_282:0xAC3E[p]>
    12C1:	061B      	ld         x, @(+0x6, y)
    12C2:	E159      	sub        x, @0xFFE1 <register al>
    12C3:	062B      	st         x, @(+0x6, y)
    12C4:	0014      	ld         al, #+0x0
    12C5:	0C27      	st         al, @(+0xC, y)
    12C6:	0DE0      	bra        +0xD <UART_SLOW_RATE_2K4+0x13:0x12D3[p]>
    12C7:	0517      	ld         al, @(+0x5, y)
    12C8:	E411      	ld         ah, @0xFFE4 <register uy>
    12C9:	0430      	add        ah, #+0x4
    12CA:	0100      	**prefx    0x1
    12CB:	9A00      	**prefx    0x9A
    12CC:	A49C      	bsr        +0x99A4 <___libgatt_lib_db_279:0xAC70[p]>
    12CD:	0527      	st         al, @(+0x5, y)
    12CE:	059B      	tst        @(+0x5, y)
    12CF:	0CF4      	beq        +0xC <UART_SLOW_RATE_2K4+0x1B:0x12DB[p]>
    12D0:	0417      	ld         al, @(+0x4, y)
    12D1:	0887      	cmp        al, @(+0x8, y)
    12D2:	B72C      	bcz        -0x49 <.LFB3+0x4A:0x1289[p]>
    12D3:	0417      	ld         al, @(+0x4, y)
    12D4:	0887      	cmp        al, @(+0x8, y)
    12D5:	022C      	bcz        +0x2 <UART_SLOW_RATE_2K4+0x17:0x12D7[p]>
    12D6:	05E0      	bra        +0x5 <UART_SLOW_RATE_2K4+0x1B:0x12DB[p]>
    12D7:	071B      	ld         x, @(+0x7, y)
    12D8:	FE38      	add        x, #-0x2
    12D9:	072B      	st         x, @(+0x7, y)
    12DA:	16E0      	bra        +0x16 <UART_SLOW_RATE_2K4+0x30:0x12F0[p]>
    12DB:	0817      	ld         al, @(+0x8, y)
    12DC:	0027      	st         al, @(0x0, y)
    12DD:	0A00      	**prefx    0xA
    12DE:	0118      	ld         x, #+0xA01
    12DF:	012B      	st         x, @(+0x1, y)
    12E0:	0B17      	ld         al, @(+0xB, y)
    12E1:	0E10      	ld         ah, #+0xE
    12E2:	0100      	**prefx    0x1
    12E3:	8600      	**prefx    0x86
    12E4:	A79C      	bsr        +0x85A7 <___libgatt_lib_db_143:0x988B[p]>
    12E5:	13E0      	bra        +0x13 <UART_SLOW_RATE_2K4+0x38:0x12F8[p]>
    12E6:	0B17      	ld         al, @(+0xB, y)
    12E7:	0100      	**prefx    0x1
    12E8:	9734      	add        al, #+0x97
    12E9:	0A27      	st         al, @(+0xA, y)
    12EA:	0B1B      	ld         x, @(+0xB, y)
    12EB:	0100      	**prefx    0x1
    12EC:	9A38      	add        x, #+0x9A
    12ED:	092B      	st         x, @(+0x9, y)
    12EE:	0014      	ld         al, #+0x0
    12EF:	0527      	st         al, @(+0x5, y)
    12F0:	079B      	tst        @(+0x7, y)
    12F1:	03F4      	beq        +0x3 <UART_SLOW_RATE_2K4+0x34:0x12F4[p]>
    12F2:	069B      	tst        @(+0x6, y)
    12F3:	87F0      	bne        -0x79 <.LFB3+0x3B:0x127A[p]>
    12F4:	0B17      	ld         al, @(+0xB, y)
    12F5:	0100      	**prefx    0x1
    12F6:	8900      	**prefx    0x89
    12F7:	D09C      	bsr        +0x88D0 <___libgatt_lib_db_165:0x9BC7[p]>
    12F8:	0114      	ld         al, #+0x1
    12F9:	0E0F      	leave      #+0xE

0x000012FA <___libgatt_lib_db_4615>:
    12FA:	0C0B      	enter      #+0xC
    12FB:	3600      	**prefx    0x36
    12FC:	BB99      	tst        @0x35BB <enable_lowduty_directed_adv>
    12FD:	56F4      	beq        +0x56 <___libgatt_lib_db_4615+0x59:0x1353[p]>
    12FE:	0214      	ld         al, #+0x2
    12FF:	0100      	**prefx    0x1
    1300:	A600      	**prefx    0xA6
    1301:	C29C      	bsr        +0xA5C2 <___libgatt_lib_db_4015:0xB8C3[p]>
    1302:	0284      	cmp        al, #+0x2
    1303:	06F4      	beq        +0x6 <___libgatt_lib_db_4615+0xF:0x1309[p]>
    1304:	CF00      	**prefx    0xCF
    1305:	E314      	ld         al, #-0x311D
    1306:	0B27      	st         al, @(+0xB, y)
    1307:	0C14      	ld         al, #+0xC
    1308:	4BE0      	bra        +0x4B <___libgatt_lib_db_4615+0x59:0x1353[p]>
    1309:	1A1B      	ld         x, @(+0x1A, y)
    130A:	092B      	st         x, @(+0x9, y)
    130B:	1D17      	ld         al, @(+0x1D, y)
    130C:	0827      	st         al, @(+0x8, y)
    130D:	1E1B      	ld         x, @(+0x1E, y)
    130E:	072B      	st         x, @(+0x7, y)
    130F:	1F17      	ld         al, @(+0x1F, y)
    1310:	0A27      	st         al, @(+0xA, y)
    1311:	4118      	ld         x, #+0x41
    1312:	9700      	**prefx    0x97
    1313:	5F29      	st         x, @0x975F <le_device+0xA>
    1314:	0817      	ld         al, @(+0x8, y)
    1315:	9700      	**prefx    0x97
    1316:	6325      	st         al, @0x9763 <le_device+0xE>
    1317:	E415      	ld         al, @0xFFE4 <register uy>
    1318:	0134      	add        al, #+0x1
    1319:	0100      	**prefx    0x1
    131A:	A200      	**prefx    0xA2
    131B:	7C9C      	bsr        +0xA27C <___libgatt_lib_db_3944:0xB597[p]>
    131C:	A200      	**prefx    0xA2
    131D:	B715      	ld         al, @0xA1B7 <___libgatt_lib_db_4169>
    131E:	0100      	**prefx    0x1
    131F:	A300      	**prefx    0xA3
    1320:	999C      	bsr        +0xA299 <___libgatt_lib_db_3947:0xB5B9[p]>
    1321:	0627      	st         al, @(+0x6, y)
    1322:	071B      	ld         x, @(+0x7, y)
    1323:	9700      	**prefx    0x97
    1324:	6229      	st         x, @0x9762 <le_device+0xD>
    1325:	0414      	ld         al, #+0x4
    1326:	9700      	**prefx    0x97
    1327:	6410      	ld         ah, #-0x689C
    1328:	0A1B      	ld         x, @(+0xA, y)
    1329:	FD09      	bc2        
    132A:	0A17      	ld         al, @(+0xA, y)
    132B:	E411      	ld         ah, @0xFFE4 <register uy>
    132C:	0330      	add        ah, #+0x3
    132D:	0100      	**prefx    0x1
    132E:	A600      	**prefx    0xA6
    132F:	E89C      	bsr        +0xA5E8 <___libgatt_lib_db_4023:0xB917[p]>
    1330:	0617      	ld         al, @(+0x6, y)
    1331:	0834      	add        al, #+0x8
    1332:	0618      	ld         x, #+0x6
    1333:	002B      	st         x, @(0x0, y)
    1334:	E411      	ld         ah, @0xFFE4 <register uy>
    1335:	0330      	add        ah, #+0x3
    1336:	7A00      	**prefx    0x7A
    1337:	A99C      	bsr        +0x79A9 <MemCopyUnPack:0x8CE0[p]>
    1338:	0C14      	ld         al, #+0xC
    1339:	061B      	ld         x, @(+0x6, y)
    133A:	0126      	st         al, @(+0x1, x)
    133B:	0817      	ld         al, @(+0x8, y)
    133C:	06A0      	asl        #0x6
    133D:	F825      	st         al, @0xFFF8 <(scratchpad)>
    133E:	0717      	ld         al, @(+0x7, y)
    133F:	07A0      	asl        #0x7
    1340:	F8B5      	or         al, @0xFFF8 <(scratchpad)>
    1341:	01B4      	or         al, #+0x1
    1342:	0026      	st         al, @(0x0, x)
    1343:	E415      	ld         al, @0xFFE4 <register uy>
    1344:	0134      	add        al, #+0x1
    1345:	0100      	**prefx    0x1
    1346:	A200      	**prefx    0xA2
    1347:	599C      	bsr        +0xA259 <___libgatt_lib_db_3945:0xB5A0[p]>
    1348:	091B      	ld         x, @(+0x9, y)
    1349:	F600      	**prefx    0xF6
    134A:	F229      	st         x, @0xF5F2 <___libgatt_lib_db_1825>
    134B:	F700      	**prefx    0xF7
    134C:	B715      	ld         al, @0xF6B7 <___libgatt_lib_db_1826>
    134D:	FDC4      	and        al, #0xFFFD
    134E:	F700      	**prefx    0xF7
    134F:	B725      	st         al, @0xF6B7 <___libgatt_lib_db_1826>
    1350:	CF00      	**prefx    0xCF
    1351:	DA14      	ld         al, #-0x3126
    1352:	0B27      	st         al, @(+0xB, y)
    1353:	0C0F      	leave      #+0xC

0x00001354 <___libgatt_lib_db_4616>:
    1354:	020B      	enter      #+0x2
    1355:	0014      	ld         al, #+0x0
    1356:	0027      	st         al, @(0x0, y)
    1357:	0917      	ld         al, @(+0x9, y)
    1358:	9000      	**prefx    0x90
    1359:	9184      	cmp        al, #-0x706F
    135A:	14F0      	bne        +0x14 <___libgatt_lib_db_4616+0x1A:0x136E[p]>
    135B:	0100      	**prefx    0x1
    135C:	BA00      	**prefx    0xBA
    135D:	0D9C      	bsr        +0xBA0D <___libgatt_lib_db_4084:0xCD6A[p]>
    135E:	0027      	st         al, @(0x0, y)
    135F:	0017      	ld         al, @(0x0, y)
    1360:	0CF0      	bne        +0xC <___libgatt_lib_db_4616+0x18:0x136C[p]>
    1361:	9300      	**prefx    0x93
    1362:	6815      	ld         al, @0x9368 <___libgatt_lib_db_73>
    1363:	0284      	cmp        al, #+0x2
    1364:	08F0      	bne        +0x8 <___libgatt_lib_db_4616+0x18:0x136C[p]>
    1365:	9300      	**prefx    0x93
    1366:	6915      	ld         al, @0x9369 <___libgatt_lib_db_73+0x1>
    1367:	0284      	cmp        al, #+0x2
    1368:	04F0      	bne        +0x4 <___libgatt_lib_db_4616+0x18:0x136C[p]>
    1369:	9000      	**prefx    0x90
    136A:	A514      	ld         al, #-0x705B
    136B:	0927      	st         al, @(+0x9, y)
    136C:	0017      	ld         al, @(0x0, y)
    136D:	0A0F      	leave      #+0xA
    136E:	020F      	leave      #+0x2

0x0000136F <___libgatt_lib_db_4652>:
    136F:	050B      	enter      #+0x5
    1370:	0100      	**prefx    0x1
    1371:	DF00      	**prefx    0xDF
    1372:	4D9C      	bsr        +0xDF4D <___libgatt_lib_db_4439:0xF2BF[p]>
    1373:	0327      	st         al, @(+0x3, y)
    1374:	F600      	**prefx    0xF6
    1375:	1915      	ld         al, @0xF619 <___libgatt_lib_db_1964>
    1376:	7F00      	**prefx    0x7F
    1377:	00C4      	and        al, #0x7F00
    1378:	2AB4      	or         al, #+0x2A
    1379:	F600      	**prefx    0xF6
    137A:	1925      	st         al, @0xF619 <___libgatt_lib_db_1964>
    137B:	4100      	**prefx    0x41
    137C:	2914      	ld         al, #+0x4129
    137D:	F600      	**prefx    0xF6
    137E:	1B25      	st         al, @0xF61B <___libgatt_lib_db_1956>
    137F:	7100      	**prefx    0x71
    1380:	7614      	ld         al, #+0x7176
    1381:	F600      	**prefx    0xF6
    1382:	1A25      	st         al, @0xF61A <___libgatt_lib_db_1955>
    1383:	5500      	**prefx    0x55
    1384:	5514      	ld         al, #+0x5555
    1385:	F600      	**prefx    0xF6
    1386:	2125      	st         al, @0xF621 <___libgatt_lib_db_1966>
    1387:	5514      	ld         al, #+0x55
    1388:	F600      	**prefx    0xF6
    1389:	2025      	st         al, @0xF620 <___libgatt_lib_db_1965>
    138A:	E415      	ld         al, @0xFFE4 <register uy>
    138B:	6410      	ld         ah, #+0x64
    138C:	7A00      	**prefx    0x7A
    138D:	AA9C      	bsr        +0x79AA <TimeGet48WithOffset:0x8D37[p]>
    138E:	F600      	**prefx    0xF6
    138F:	2618      	ld         x, #-0x9DA
    1390:	0017      	ld         al, @(0x0, y)
    1391:	0026      	st         al, @(0x0, x)
    1392:	0117      	ld         al, @(+0x1, y)
    1393:	FF26      	st         al, @(-0x1, x)
    1394:	0217      	ld         al, @(+0x2, y)
    1395:	F600      	**prefx    0xF6
    1396:	2425      	st         al, @0xF624 <___libgatt_lib_db_1984>
    1397:	6414      	ld         al, #+0x64
    1398:	F700      	**prefx    0xF7
    1399:	8625      	st         al, @0xF686 <___libgatt_lib_db_1982>
    139A:	0014      	ld         al, #+0x0
    139B:	F700      	**prefx    0xF7
    139C:	8525      	st         al, @0xF685 <___libgatt_lib_db_1981>
    139D:	0114      	ld         al, #+0x1
    139E:	F600      	**prefx    0xF6
    139F:	2225      	st         al, @0xF622 <___libgatt_lib_db_1971>
    13A0:	0100      	**prefx    0x1
    13A1:	9614      	ld         al, #+0x96
    13A2:	0100      	**prefx    0x1
    13A3:	A000      	**prefx    0xA0
    13A4:	B89C      	bsr        +0x9FB8 <TimeDelayUSec:0xB35C[p]>
    13A5:	0314      	ld         al, #+0x3
    13A6:	F600      	**prefx    0xF6
    13A7:	5C25      	st         al, @0xF65C <___libgatt_lib_db_1425>
    13A8:	0214      	ld         al, #+0x2
    13A9:	F600      	**prefx    0xF6
    13AA:	5C25      	st         al, @0xF65C <___libgatt_lib_db_1425>
    13AB:	0014      	ld         al, #+0x0
    13AC:	F600      	**prefx    0xF6
    13AD:	5C25      	st         al, @0xF65C <___libgatt_lib_db_1425>
    13AE:	3214      	ld         al, #+0x32
    13AF:	0100      	**prefx    0x1
    13B0:	A000      	**prefx    0xA0
    13B1:	AB9C      	bsr        +0x9FAB <TimeDelayUSec:0xB35C[p]>
    13B2:	0214      	ld         al, #+0x2
    13B3:	F600      	**prefx    0xF6
    13B4:	2225      	st         al, @0xF622 <___libgatt_lib_db_1971>
    13B5:	0317      	ld         al, @(+0x3, y)
    13B6:	0100      	**prefx    0x1
    13B7:	E000      	**prefx    0xE0
    13B8:	CA9C      	bsr        +0xDFCA <___libgatt_lib_db_4443:0xF382[p]>
    13B9:	5414      	ld         al, #+0x54
    13BA:	F000      	**prefx    0xF0
    13BB:	5325      	st         al, @0xF053 <___libgatt_lib_db_4430>
    13BC:	050F      	leave      #+0x5

0x000013BD <___libgatt_lib_db_4207>:
    13BD:	1300      	**prefx    0x13
    13BE:	7B14      	ld         al, #+0x137B
    13BF:	F900      	**prefx    0xF9
    13C0:	4225      	st         al, @0xF942 <___libgatt_lib_db_2749>
    13C1:	F700      	**prefx    0xF7
    13C2:	2B15      	ld         al, @0xF72B <___libgatt_lib_db_3266>
    13C3:	04B4      	or         al, #+0x4
    13C4:	F700      	**prefx    0xF7
    13C5:	2B25      	st         al, @0xF72B <___libgatt_lib_db_3266>
    13C6:	0014      	ld         al, #+0x0
    13C7:	F900      	**prefx    0xF9
    13C8:	4225      	st         al, @0xF942 <___libgatt_lib_db_2749>
    13C9:	00E2      	bra        0x0, x

0x000013CA <___libgatt_lib_db_4657>:
    13CA:	A000      	**prefx    0xA0
    13CB:	C315      	ld         al, @0x9FC3 <DATA_CSTORE_START+0x3F>
    13CC:	FE00      	**prefx    0xFE
    13CD:	A125      	st         al, @0xFDA1 <___libgatt_lib_db_3063>
    13CE:	00E2      	bra        0x0, x

0x000013CF <___libgatt_lib_db_4660>:
    13CF:	010B      	enter      #+0x1
    13D0:	0100      	**prefx    0x1
    13D1:	E500      	**prefx    0xE5
    13D2:	669C      	bsr        +0xE566 <___libgatt_lib_db_4505:0xF938[p]>
    13D3:	E199      	tst        @0xFFE1 <register al>
    13D4:	06F0      	bne        +0x6 <___libgatt_lib_db_4660+0xB:0x13DA[p]>
    13D5:	0100      	**prefx    0x1
    13D6:	A500      	**prefx    0xA5
    13D7:	229C      	bsr        +0xA522 <___libgatt_lib_db_4006:0xB8F9[p]>
    13D8:	E199      	tst        @0xFFE1 <register al>
    13D9:	04F4      	beq        +0x4 <___libgatt_lib_db_4660+0xE:0x13DD[p]>
    13DA:	E800      	**prefx    0xE8
    13DB:	8214      	ld         al, #-0x187E
    13DC:	0027      	st         al, @(0x0, y)
    13DD:	010F      	leave      #+0x1

0x000013DE <___libgatt_lib_db_4662>:
    13DE:	1117      	ld         al, @(+0x11, y)
    13DF:	0A84      	cmp        al, #+0xA
    13E0:	02F0      	bne        +0x2 <___libgatt_lib_db_4662+0x4:0x13E2[p]>
    13E1:	130F      	leave      #+0x13
    13E2:	00E2      	bra        0x0, x

0x000013E3 <___libgatt_lib_db_4670>:
    13E3:	010B      	enter      #+0x1
    13E4:	0117      	ld         al, @(+0x1, y)
    13E5:	F825      	st         al, @0xFFF8 <(scratchpad)>
    13E6:	08F0      	bne        +0x8 <___libgatt_lib_db_4670+0xB:0x13EE[p]>
    13E7:	A000      	**prefx    0xA0
    13E8:	9D15      	ld         al, @0x9F9D <DATA_CSTORE_START+0x19>
    13E9:	0284      	cmp        al, #+0x2
    13EA:	04F0      	bne        +0x4 <___libgatt_lib_db_4670+0xB:0x13EE[p]>
    13EB:	9500      	**prefx    0x95
    13EC:	1C18      	ld         x, #-0x6AE4
    13ED:	03E0      	bra        +0x3 <___libgatt_lib_db_4670+0xD:0x13F0[p]>
    13EE:	9500      	**prefx    0x95
    13EF:	1618      	ld         x, #-0x6AEA
    13F0:	1300      	**prefx    0x13
    13F1:	7B14      	ld         al, #+0x137B
    13F2:	F900      	**prefx    0xF9
    13F3:	4225      	st         al, @0xF942 <___libgatt_lib_db_2749>
    13F4:	0614      	ld         al, #+0x6
    13F5:	F400      	**prefx    0xF4
    13F6:	9D10      	ld         ah, #-0xC63
    13F7:	FD09      	bc2        
    13F8:	F899      	tst        @0xFFF8 <(scratchpad)>
    13F9:	05F4      	beq        +0x5 <L0+0xD:0x13FE[p]>
    13FA:	F000      	**prefx    0xF0
    13FB:	3515      	ld         al, @0xF035 <___libgatt_lib_db_1169>
    13FC:	FDC4      	and        al, #0xFFFD
    13FD:	0AE0      	bra        +0xA <L0+0x16:0x1407[p]>
    13FE:	2014      	ld         al, #+0x20
    13FF:	F000      	**prefx    0xF0
    1400:	0A10      	ld         ah, #-0xFF6
    1401:	9C00      	**prefx    0x9C
    1402:	A018      	ld         x, #-0x6460
    1403:	FD09      	bc2        
    1404:	F000      	**prefx    0xF0
    1405:	3515      	ld         al, @0xF035 <___libgatt_lib_db_1169>
    1406:	02B4      	or         al, #+0x2
    1407:	F000      	**prefx    0xF0
    1408:	3525      	st         al, @0xF035 <___libgatt_lib_db_1169>
    1409:	0014      	ld         al, #+0x0
    140A:	F900      	**prefx    0xF9
    140B:	4225      	st         al, @0xF942 <___libgatt_lib_db_2749>
    140C:	F815      	ld         al, @0xFFF8 <(scratchpad)>
    140D:	9500      	**prefx    0x95
    140E:	1525      	st         al, @0x9515 <___libgatt_lib_db_91>
    140F:	030F      	leave      #+0x3
    1410:	010F      	leave      #+0x1

0x00001411 <___libgatt_lib_db_4214>:
    1411:	070B      	enter      #+0x7
    1412:	F900      	**prefx    0xF9
    1413:	4211      	ld         ah, @0xF942 <___libgatt_lib_db_2749>
    1414:	0323      	st         ah, @(+0x3, y)
    1415:	1300      	**prefx    0x13
    1416:	7B14      	ld         al, #+0x137B
    1417:	F900      	**prefx    0xF9
    1418:	4225      	st         al, @0xF942 <___libgatt_lib_db_2749>
    1419:	FA00      	**prefx    0xFA
    141A:	9215      	ld         al, @0xF992 <___libgatt_lib_db_738>
    141B:	01B4      	or         al, #+0x1
    141C:	FA00      	**prefx    0xFA
    141D:	9225      	st         al, @0xF992 <___libgatt_lib_db_738>
    141E:	3600      	**prefx    0x36
    141F:	8E11      	ld         ah, @0x358E <patch_conn_chm_update+0x4>
    1420:	FB00      	**prefx    0xFB
    1421:	5330      	add        ah, #-0x4AD
    1422:	0214      	ld         al, #+0x2
    1423:	FF23      	st         ah, @(-0x1, y)
    1424:	FF9F      	bsr        @(-0x1, y)
    1425:	0010      	ld         ah, #+0x0
    1426:	0523      	st         ah, @(+0x5, y)
    1427:	0423      	st         ah, @(+0x4, y)
    1428:	3600      	**prefx    0x36
    1429:	8E11      	ld         ah, @0x358E <patch_conn_chm_update+0x4>
    142A:	FB00      	**prefx    0xFB
    142B:	5A30      	add        ah, #-0x4A6
    142C:	0214      	ld         al, #+0x2
    142D:	FF23      	st         ah, @(-0x1, y)
    142E:	FF9F      	bsr        @(-0x1, y)
    142F:	0537      	add        al, @(+0x5, y)
    1430:	0527      	st         al, @(+0x5, y)
    1431:	0413      	ld         ah, @(+0x4, y)
    1432:	0130      	add        ah, #+0x1
    1433:	0423      	st         ah, @(+0x4, y)
    1434:	0480      	cmp        ah, #+0x4
    1435:	F3F0      	bne        -0xD <___libgatt_lib_db_4214+0x17:0x1428[p]>
    1436:	FA00      	**prefx    0xFA
    1437:	9215      	ld         al, @0xF992 <___libgatt_lib_db_738>
    1438:	FEC4      	and        al, #0xFFFE
    1439:	FA00      	**prefx    0xFA
    143A:	9225      	st         al, @0xF992 <___libgatt_lib_db_738>
    143B:	3600      	**prefx    0x36
    143C:	8E15      	ld         al, @0x358E <patch_conn_chm_update+0x4>
    143D:	FB00      	**prefx    0xFB
    143E:	9734      	add        al, #-0x569
    143F:	FF27      	st         al, @(-0x1, y)
    1440:	FF9F      	bsr        @(-0x1, y)
    1441:	0313      	ld         ah, @(+0x3, y)
    1442:	F900      	**prefx    0xF9
    1443:	4221      	st         ah, @0xF942 <___libgatt_lib_db_2749>
    1444:	A000      	**prefx    0xA0
    1445:	BE15      	ld         al, @0x9FBE <DATA_CSTORE_START+0x3A>
    1446:	9400      	**prefx    0x94
    1447:	4525      	st         al, @0x9445 <build_identifier_integer+0x1>
    1448:	F984      	cmp        al, #-0x7
    1449:	0524      	bge        +0x5 <___libgatt_lib_db_4214+0x3D:0x144E[p]>
    144A:	F914      	ld         al, #-0x7
    144B:	9400      	**prefx    0x94
    144C:	4525      	st         al, @0x9445 <build_identifier_integer+0x1>
    144D:	06E0      	bra        +0x6 <___libgatt_lib_db_4214+0x42:0x1453[p]>
    144E:	0784      	cmp        al, #+0x7
    144F:	0428      	ble        +0x4 <___libgatt_lib_db_4214+0x42:0x1453[p]>
    1450:	0710      	ld         ah, #+0x7
    1451:	9400      	**prefx    0x94
    1452:	4521      	st         ah, @0x9445 <build_identifier_integer+0x1>
    1453:	9400      	**prefx    0x94
    1454:	4515      	ld         al, @0x9445 <build_identifier_integer+0x1>
    1455:	0227      	st         al, @(+0x2, y)
    1456:	0F13      	ld         ah, @(+0xF, y)
    1457:	FF23      	st         ah, @(-0x1, y)
    1458:	0F1B      	ld         x, @(+0xF, y)
    1459:	0513      	ld         ah, @(+0x5, y)
    145A:	0009      	**unsigned
    145B:	02A4      	lsr        #0x2
    145C:	E015      	ld         al, @0xFFE0 <register ah>
    145D:	0009      	**unsigned
    145E:	0200      	**prefx    0x2
    145F:	BE90      	umult      #0x1BE
    1460:	FB25      	st         al, @0xFFFB <(scratchpad)>
    1461:	FA21      	st         ah, @0xFFFA <(scratchpad)>
    1462:	E311      	ld         ah, @0xFFE3 <register uxl>
    1463:	0009      	**unsigned
    1464:	01A4      	lsr        #0x1
    1465:	F921      	st         ah, @0xFFF9 <(scratchpad)>
    1466:	0010      	ld         ah, #+0x0
    1467:	F821      	st         ah, @0xFFF8 <(scratchpad)>
    1468:	FB15      	ld         al, @0xFFFB <(scratchpad)>
    1469:	FA11      	ld         ah, @0xFFFA <(scratchpad)>
    146A:	F935      	add        al, @0xFFF9 <(scratchpad)>
    146B:	F841      	addc       ah, @0xFFF8 <(scratchpad)>
    146C:	0127      	st         al, @(+0x1, y)
    146D:	0023      	st         ah, @(0x0, y)
    146E:	0014      	ld         al, #+0x0
    146F:	FF13      	ld         ah, @(-0x1, y)
    1470:	7900      	**prefx    0x79
    1471:	019C      	bsr        +0x7901 <___libgatt_lib_db_3943:0x8D72[p]>
    1472:	0213      	ld         ah, @(+0x2, y)
    1473:	0200      	**prefx    0x2
    1474:	F030      	add        ah, #+0x1F0
    1475:	E151      	sub        ah, @0xFFE1 <register al>
    1476:	9400      	**prefx    0x94
    1477:	4521      	st         ah, @0x9445 <build_identifier_integer+0x1>
    1478:	D880      	cmp        ah, #-0x28
    1479:	0524      	bge        +0x5 <___libgatt_lib_db_4214+0x6D:0x147E[p]>
    147A:	D814      	ld         al, #-0x28
    147B:	9400      	**prefx    0x94
    147C:	4525      	st         al, @0x9445 <build_identifier_integer+0x1>
    147D:	06E0      	bra        +0x6 <___libgatt_lib_db_4214+0x72:0x1483[p]>
    147E:	6E80      	cmp        ah, #+0x6E
    147F:	0428      	ble        +0x4 <___libgatt_lib_db_4214+0x72:0x1483[p]>
    1480:	6E10      	ld         ah, #+0x6E
    1481:	9400      	**prefx    0x94
    1482:	4521      	st         ah, @0x9445 <build_identifier_integer+0x1>
    1483:	9400      	**prefx    0x94
    1484:	4515      	ld         al, @0x9445 <build_identifier_integer+0x1>
    1485:	3284      	cmp        al, #+0x32
    1486:	1A28      	ble        +0x1A <___libgatt_lib_db_4214+0x8F:0x14A0[p]>
    1487:	F600      	**prefx    0xF6
    1488:	3D15      	ld         al, @0xF63D <___libgatt_lib_db_1819>
    1489:	17EC      	bmi        +0x17 <___libgatt_lib_db_4214+0x8F:0x14A0[p]>
    148A:	9C00      	**prefx    0x9C
    148B:	9915      	ld         al, @0x9B99 <DATA_RCLUTS_START+0x19>
    148C:	FE00      	**prefx    0xFE
    148D:	FFC4      	and        al, #0xFDFF
    148E:	9C00      	**prefx    0x9C
    148F:	9925      	st         al, @0x9B99 <DATA_RCLUTS_START+0x19>
    1490:	FF00      	**prefx    0xFF
    1491:	4B10      	ld         ah, #-0xB5
    1492:	F600      	**prefx    0xF6
    1493:	5021      	st         ah, @0xF650 <___libgatt_lib_db_1806>
    1494:	F600      	**prefx    0xF6
    1495:	3D15      	ld         al, @0xF63D <___libgatt_lib_db_1819>
    1496:	8000      	**prefx    0x80
    1497:	00B4      	or         al, #-0x8000
    1498:	F600      	**prefx    0xF6
    1499:	3D25      	st         al, @0xF63D <___libgatt_lib_db_1819>
    149A:	F600      	**prefx    0xF6
    149B:	3E15      	ld         al, @0xF63E <___libgatt_lib_db_1820>
    149C:	8000      	**prefx    0x80
    149D:	00B4      	or         al, #-0x8000
    149E:	F600      	**prefx    0xF6
    149F:	3E25      	st         al, @0xF63E <___libgatt_lib_db_1820>
    14A0:	9400      	**prefx    0x94
    14A1:	4515      	ld         al, @0x9445 <build_identifier_integer+0x1>
    14A2:	2C84      	cmp        al, #+0x2C
    14A3:	1620      	bgt        +0x16 <___libgatt_lib_db_4214+0xA8:0x14B9[p]>
    14A4:	F600      	**prefx    0xF6
    14A5:	3D15      	ld         al, @0xF63D <___libgatt_lib_db_1819>
    14A6:	13E8      	bpl        +0x13 <___libgatt_lib_db_4214+0xA8:0x14B9[p]>
    14A7:	F600      	**prefx    0xF6
    14A8:	3D15      	ld         al, @0xF63D <___libgatt_lib_db_1819>
    14A9:	8000      	**prefx    0x80
    14AA:	FFC4      	and        al, #0x7FFF
    14AB:	F600      	**prefx    0xF6
    14AC:	3D25      	st         al, @0xF63D <___libgatt_lib_db_1819>
    14AD:	F600      	**prefx    0xF6
    14AE:	3E15      	ld         al, @0xF63E <___libgatt_lib_db_1820>
    14AF:	8000      	**prefx    0x80
    14B0:	FFC4      	and        al, #0x7FFF
    14B1:	F600      	**prefx    0xF6
    14B2:	3E25      	st         al, @0xF63E <___libgatt_lib_db_1820>
    14B3:	9C00      	**prefx    0x9C
    14B4:	9915      	ld         al, @0x9B99 <DATA_RCLUTS_START+0x19>
    14B5:	0200      	**prefx    0x2
    14B6:	00B4      	or         al, #+0x200
    14B7:	9C00      	**prefx    0x9C
    14B8:	9925      	st         al, @0x9B99 <DATA_RCLUTS_START+0x19>
    14B9:	110F      	leave      #+0x11
    14BA:	070F      	leave      #+0x7
Disassembly of section .bootloader:

0x00006F00 <load_img_block>:
    6F00:	080B      	enter      #+0x8
    6F01:	0627      	st         al, @(+0x6, y)
    6F02:	E015      	ld         al, @0xFFE0 <register ah>
    6F03:	02A0      	asl        #0x2
    6F04:	E119      	ld         x, @0xFFE1 <register al>
    6F05:	8F00      	**prefx    0x8F
    6F06:	5338      	add        x, #-0x70AD
    6F07:	0216      	ld         al, @(+0x2, x)
    6F08:	0527      	st         al, @(+0x5, y)
    6F09:	0116      	ld         al, @(+0x1, x)
    6F0A:	0427      	st         al, @(+0x4, y)
    6F0B:	0617      	ld         al, @(+0x6, y)
    6F0C:	0036      	add        al, @(0x0, x)
    6F0D:	0627      	st         al, @(+0x6, y)
    6F0E:	21E0      	bra        +0x21 <BOOTLOADER_START+0x2F:0x6F2F[p]>
    6F0F:	0517      	ld         al, @(+0x5, y)
    6F10:	0327      	st         al, @(+0x3, y)
    6F11:	0400      	**prefx    0x4
    6F12:	0084      	cmp        al, #+0x400
    6F13:	042C      	bcz        +0x4 <BOOTLOADER_START+0x17:0x6F17[p]>
    6F14:	0400      	**prefx    0x4
    6F15:	0014      	ld         al, #+0x400
    6F16:	0327      	st         al, @(+0x3, y)
    6F17:	0114      	ld         al, #+0x1
    6F18:	0027      	st         al, @(0x0, y)
    6F19:	0317      	ld         al, @(+0x3, y)
    6F1A:	0127      	st         al, @(+0x1, y)
    6F1B:	0417      	ld         al, @(+0x4, y)
    6F1C:	0227      	st         al, @(+0x2, y)
    6F1D:	5014      	ld         al, #+0x50
    6F1E:	0613      	ld         ah, @(+0x6, y)
    6F1F:	7C00      	**prefx    0x7C
    6F20:	B69C      	bsr        +0x7BB6 <I2cEepromRead:0xEAD6[p]>
    6F21:	0617      	ld         al, @(+0x6, y)
    6F22:	0337      	add        al, @(+0x3, y)
    6F23:	0627      	st         al, @(+0x6, y)
    6F24:	031B      	ld         x, @(+0x3, y)
    6F25:	01C8      	and        x, #0x1
    6F26:	0313      	ld         ah, @(+0x3, y)
    6F27:	0009      	**unsigned
    6F28:	01A4      	lsr        #0x1
    6F29:	E039      	add        x, @0xFFE0 <register ah>
    6F2A:	043B      	add        x, @(+0x4, y)
    6F2B:	042B      	st         x, @(+0x4, y)
    6F2C:	0517      	ld         al, @(+0x5, y)
    6F2D:	0357      	sub        al, @(+0x3, y)
    6F2E:	0527      	st         al, @(+0x5, y)
    6F2F:	059B      	tst        @(+0x5, y)
    6F30:	DFF0      	bne        -0x21 <BOOTLOADER_START+0xF:0x6F0F[p]>
    6F31:	080F      	leave      #+0x8

0x00006F32 <load_img>:
    6F32:	030B      	enter      #+0x3
    6F33:	0284      	cmp        al, #+0x2
    6F34:	04F0      	bne        +0x4 <load_img+0x6:0x6F38[p]>
    6F35:	9A00      	**prefx    0x9A
    6F36:	6E14      	ld         al, #-0x6592
    6F37:	03E0      	bra        +0x3 <load_img+0x8:0x6F3A[p]>
    6F38:	3D00      	**prefx    0x3D
    6F39:	0014      	ld         al, #+0x3D00
    6F3A:	0127      	st         al, @(+0x1, y)
    6F3B:	0014      	ld         al, #+0x0
    6F3C:	06E0      	bra        +0x6 <load_img+0x10:0x6F42[p]>
    6F3D:	0117      	ld         al, @(+0x1, y)
    6F3E:	0013      	ld         ah, @(0x0, y)
    6F3F:	C19C      	bsr        -0x3F <BOOTLOADER_START:0x6F00[p]>
    6F40:	0017      	ld         al, @(0x0, y)
    6F41:	0134      	add        al, #+0x1
    6F42:	0027      	st         al, @(0x0, y)
    6F43:	0017      	ld         al, @(0x0, y)
    6F44:	8F00      	**prefx    0x8F
    6F45:	5285      	cmp        al, @0x8F52 <LsStartStopAdvertise_A05+0x3F>
    6F46:	F7FC      	bcs        -0x9 <load_img+0xB:0x6F3D[p]>
    6F47:	0518      	ld         x, #+0x5
    6F48:	00E2      	bra        0x0, x
    6F49:	030F      	leave      #+0x3
